(dp0
S'METTS MARK'
p1
(dp2
S'to_messages'
p3
I807
sS'deferral_payments'
p4
S'NaN'
p5
sS'expenses'
p6
I94299
sS'poi'
p7
I00
sS'deferred_income'
p8
g5
sS'email_address'
p9
S'mark.metts@enron.com'
p10
sS'long_term_incentive'
p11
g5
sS'restricted_stock_deferred'
p12
g5
sS'shared_receipt_with_poi'
p13
I702
sS'loan_advances'
p14
g5
sS'from_messages'
p15
I29
sS'other'
p16
I1740
sS'ratio_messages_from_poi'
p17
F0.04708798017348203
sS'poi_total'
p18
I39
sS'director_fees'
p19
g5
sS'bonus'
p20
I600000
sS'total_stock_value'
p21
I585062
sS'from_poi_to_this_person'
p22
I38
sS'scaled_bonus'
p23
F0.075
sS'scaled_exercised_stock_options'
p24
F0.0
sS'from_this_person_to_poi'
p25
I1
sS'restricted_stock'
p26
I585062
sS'salary'
p27
I365788
sS'ratio_messages_shared'
p28
F0.8698884758364313
sS'scaled_salary'
p29
F0.329165684296536
sS'total_payments'
p30
I1061827
sS'scaled_total_stock_value'
p31
F0.012799625895430116
sS'scaled_ratio_messages_to_poi'
p32
F0.034482758620689655
sS'ratio_messages_to_poi'
p33
F0.034482758620689655
sS'exercised_stock_options'
p34
g5
ssS'BAXTER JOHN C'
p35
(dp36
g3
g5
sg4
I1295738
sg6
I11200
sg7
I00
sg8
I-1386055
sg9
g5
sg11
I1586055
sg12
g5
sg13
g5
sg14
g5
sg15
g5
sg16
I2660303
sg17
F0.0
sg18
F0.0
sg19
g5
sg20
I1200000
sg21
I10623258
sg22
g5
sg23
F0.15
sg24
F0.1944936914644951
sg25
g5
sg26
I3942714
sg27
I267102
sg28
F0.0
sg29
F0.2403600244047737
sg30
I5634343
sg31
F0.21701822618471178
sg32
F0.0
sg33
F0.0
sg34
I6680544
ssS'ELLIOTT STEVEN'
p37
(dp38
g3
g5
sg4
g5
sg6
I78552
sg7
I00
sg8
I-400729
sg9
S'steven.elliott@enron.com'
p39
sg11
g5
sg12
g5
sg13
g5
sg14
g5
sg15
g5
sg16
I12961
sg17
F0.0
sg18
F0.0
sg19
g5
sg20
I350000
sg21
I6678735
sg22
g5
sg23
F0.04375
sg24
F0.14237479119832827
sg25
g5
sg26
I1788391
sg27
I170941
sg28
F0.0
sg29
F0.15382656412822224
sg30
I211725
sg31
F0.1367702447875685
sg32
F0.0
sg33
F0.0
sg34
I4890344
ssS'CORDES WILLIAM R'
p40
(dp41
g3
I764
sg4
g5
sg6
g5
sg7
I00
sg8
g5
sg9
S'bill.cordes@enron.com'
p42
sg11
g5
sg12
g5
sg13
I58
sg14
g5
sg15
I12
sg16
g5
sg17
F0.013089005235602094
sg18
I10
sg19
g5
sg20
g5
sg21
I1038185
sg22
I10
sg23
F0.0
sg24
F0.018977603138476618
sg25
I0
sg26
I386335
sg27
g5
sg28
F0.07591623036649214
sg29
F0.0
sg30
g5
sg31
F0.022018029761909728
sg32
F0.0
sg33
F0.0
sg34
I651850
ssS'HANNON KEVIN P'
p43
(dp44
g3
I1045
sg4
g5
sg6
I34039
sg7
I01
sg8
I-3117011
sg9
S'kevin.hannon@enron.com'
p45
sg11
I1617011
sg12
g5
sg13
I1035
sg14
g5
sg15
I32
sg16
I11350
sg17
F0.03062200956937799
sg18
I53
sg19
g5
sg20
I1500000
sg21
I6391065
sg22
I32
sg23
F0.1875
sg24
F0.1612303216360921
sg25
I21
sg26
I853064
sg27
I243293
sg28
F0.9904306220095693
sg29
F0.2189347568251477
sg30
I288682
sg31
F0.13091784215016056
sg32
F0.65625
sg33
F0.65625
sg34
I5538001
ssS'MORDAUNT KRISTINA M'
p46
(dp47
g3
g5
sg4
g5
sg6
I35018
sg7
I00
sg8
g5
sg9
S'kristina.mordaunt@enron.com'
p48
sg11
g5
sg12
g5
sg13
g5
sg14
g5
sg15
g5
sg16
I1411
sg17
F0.0
sg18
F0.0
sg19
g5
sg20
I325000
sg21
I208510
sg22
g5
sg23
F0.040625
sg24
F0.0
sg25
g5
sg26
I208510
sg27
I267093
sg28
F0.0
sg29
F0.24035192547545214
sg30
I628522
sg31
F0.005138994206615752
sg32
F0.0
sg33
F0.0
sg34
g5
ssS'MEYER ROCKFORD G'
p49
(dp50
g3
I232
sg4
I1848227
sg6
g5
sg7
I00
sg8
g5
sg9
S'rockford.meyer@enron.com'
p51
sg11
g5
sg12
g5
sg13
I22
sg14
g5
sg15
I28
sg16
g5
sg17
F0.0
sg18
I0
sg19
g5
sg20
g5
sg21
I955873
sg22
I0
sg23
F0.0
sg24
F0.014367167899369006
sg25
I0
sg26
I462384
sg27
g5
sg28
F0.09482758620689655
sg29
F0.0
sg30
I1848227
sg31
F0.020343461798999724
sg32
F0.0
sg33
F0.0
sg34
I493489
ssS'MCMAHON JEFFREY'
p52
(dp53
g3
I2355
sg4
g5
sg6
I137108
sg7
I00
sg8
g5
sg9
S'jeffrey.mcmahon@enron.com'
p54
sg11
I694862
sg12
g5
sg13
I2228
sg14
g5
sg15
I48
sg16
I297353
sg17
F0.024628450106157114
sg18
I84
sg19
g5
sg20
I2600000
sg21
I1662855
sg22
I58
sg23
F0.325
sg24
F0.03214282220671575
sg25
I26
sg26
I558801
sg27
I370448
sg28
F0.9460721868365181
sg29
F0.3333591299230242
sg30
I4099771
sg31
F0.03472641212889136
sg32
F0.5416666666666666
sg33
F0.5416666666666666
sg34
I1104054
ssS'HORTON STANLEY C'
p55
(dp56
g3
I2350
sg4
I3131860
sg6
g5
sg7
I00
sg8
g5
sg9
S'stanley.horton@enron.com'
p57
sg11
g5
sg12
g5
sg13
I1074
sg14
g5
sg15
I1073
sg16
g5
sg17
F0.01872340425531915
sg18
I59
sg19
g5
sg20
g5
sg21
I7256648
sg22
I44
sg23
F0.0
sg24
F0.15169764609595607
sg25
I15
sg26
I2046079
sg27
g5
sg28
F0.4570212765957447
sg29
F0.0
sg30
I3131860
sg31
F0.1485273955693404
sg32
F0.013979496738117428
sg33
F0.013979496738117428
sg34
I5210569
ssS'PIPER GREGORY F'
p58
(dp59
g3
I1238
sg4
I1130036
sg6
I43057
sg7
I00
sg8
I-33333
sg9
S'greg.piper@enron.com'
p60
sg11
g5
sg12
I-409554
sg13
I742
sg14
g5
sg15
I222
sg16
I778
sg17
F0.049273021001615507
sg18
I109
sg19
g5
sg20
I400000
sg21
I880290
sg22
I61
sg23
F0.05
sg24
F0.025628279921407655
sg25
I48
sg26
I409554
sg27
I197091
sg28
F0.5993537964458805
sg29
F0.1773584532124853
sg30
I1737629
sg31
F0.01880578964499269
sg32
F0.21621621621621623
sg33
F0.21621621621621623
sg34
I880290
ssS'HUMPHREY GENE E'
p61
(dp62
g3
I128
sg4
I2964506
sg6
I4994
sg7
I00
sg8
g5
sg9
S'gene.humphrey@enron.com'
p63
sg11
g5
sg12
g5
sg13
I119
sg14
g5
sg15
I17
sg16
g5
sg17
F0.078125
sg18
I27
sg19
g5
sg20
g5
sg21
I2282768
sg22
I10
sg23
F0.0
sg24
F0.0664592546770177
sg25
I17
sg26
g5
sg27
I130724
sg28
F0.9296875
sg29
F0.1176360485143864
sg30
I3100224
sg31
F0.04733801735767246
sg32
F1.0
sg33
F1.0
sg34
I2282768
ssS'UMANOFF ADAM S'
p64
(dp65
g3
I111
sg4
g5
sg6
I53122
sg7
I00
sg8
g5
sg9
S'adam.umanoff@enron.com'
p66
sg11
g5
sg12
g5
sg13
I41
sg14
g5
sg15
I18
sg16
g5
sg17
F0.10810810810810811
sg18
I12
sg19
g5
sg20
I788750
sg21
g5
sg22
I12
sg23
F0.09859375
sg24
F0.0
sg25
I0
sg26
g5
sg27
I288589
sg28
F0.36936936936936937
sg29
F0.2596957682194414
sg30
I1130461
sg31
F0.0008970347602851444
sg32
F0.0
sg33
F0.0
sg34
g5
ssS'BLACHMAN JEREMY M'
p67
(dp68
g3
I2475
sg4
g5
sg6
I84208
sg7
I00
sg8
g5
sg9
S'jeremy.blachman@enron.com'
p69
sg11
I831809
sg12
g5
sg13
I2326
sg14
g5
sg15
I14
sg16
I272
sg17
F0.010101010101010102
sg18
I27
sg19
g5
sg20
I850000
sg21
I954354
sg22
I25
sg23
F0.10625
sg24
F0.022280902647414214
sg25
I2
sg26
I189041
sg27
I248546
sg28
F0.9397979797979797
sg29
F0.22366183190582206
sg30
I2014835
sg31
F0.02031255902983289
sg32
F0.14285714285714285
sg33
F0.14285714285714285
sg34
I765313
ssS'SUNDE MARTIN'
p70
(dp71
g3
I2647
sg4
g5
sg6
g5
sg7
I00
sg8
g5
sg9
S'marty.sunde@enron.com'
p72
sg11
I476451
sg12
g5
sg13
I2565
sg14
g5
sg15
I38
sg16
I111122
sg17
F0.013978088401964487
sg18
I50
sg19
g5
sg20
I700000
sg21
I698920
sg22
I37
sg23
F0.0875
sg24
F0.0
sg25
I13
sg26
I698920
sg27
I257486
sg28
F0.9690215338118625
sg29
F0.2317067683652221
sg30
I1545059
sg31
F0.01511597052465802
sg32
F0.34210526315789475
sg33
F0.34210526315789475
sg34
g5
ssS'GIBBS DANA R'
p73
(dp74
g3
I169
sg4
I504610
sg6
g5
sg7
I00
sg8
g5
sg9
S'dana.gibbs@enron.com'
p75
sg11
I461912
sg12
g5
sg13
I23
sg14
g5
sg15
I12
sg16
g5
sg17
F0.0
sg18
I0
sg19
g5
sg20
g5
sg21
I2218275
sg22
I0
sg23
F0.0
sg24
F0.06458164087137258
sg25
I0
sg26
g5
sg27
g5
sg28
F0.13609467455621302
sg29
F0.0
sg30
I966522
sg31
F0.046025961865982845
sg32
F0.0
sg33
F0.0
sg34
I2218275
ssS'LOWRY CHARLES P'
p76
(dp77
g3
g5
sg4
g5
sg6
g5
sg7
I00
sg8
g5
sg9
g5
sg11
g5
sg12
I-153686
sg13
g5
sg14
g5
sg15
g5
sg16
g5
sg17
F0.0
sg18
F0.0
sg19
g5
sg20
g5
sg21
I372205
sg22
g5
sg23
F0.0
sg24
F0.010836172088911083
sg25
g5
sg26
I153686
sg27
g5
sg28
F0.0
sg29
F0.0
sg30
g5
sg31
F0.008469230413834057
sg32
F0.0
sg33
F0.0
sg34
I372205
ssS'COLWELL WESLEY'
p78
(dp79
g3
I1758
sg4
I27610
sg6
I16514
sg7
I01
sg8
I-144062
sg9
S'wes.colwell@enron.com'
p80
sg11
g5
sg12
g5
sg13
I1132
sg14
g5
sg15
I40
sg16
I101740
sg17
F0.13651877133105803
sg18
I251
sg19
g5
sg20
I1200000
sg21
I698242
sg22
I240
sg23
F0.15
sg24
F0.0
sg25
I11
sg26
I698242
sg27
I288542
sg28
F0.6439135381114903
sg29
F0.2596534738107622
sg30
I1490344
sg31
F0.015102177188584871
sg32
F0.275
sg33
F0.275
sg34
g5
ssS'MULLER MARK S'
p81
(dp82
g3
I136
sg4
I842924
sg6
g5
sg7
I00
sg8
I-719000
sg9
S's..muller@enron.com'
p83
sg11
I1725545
sg12
g5
sg13
I114
sg14
g5
sg15
I16
sg16
I947
sg17
F0.08823529411764706
sg18
I12
sg19
g5
sg20
I1100000
sg21
I1416848
sg22
I12
sg23
F0.1375
sg24
F0.030753120729056716
sg25
I0
sg26
I360528
sg27
I251654
sg28
F0.8382352941176471
sg29
F0.2264586621648618
sg30
I3202070
sg31
F0.029721607958763052
sg32
F0.0
sg33
F0.0
sg34
I1056320
ssS'JACKSON CHARLENE R'
p84
(dp85
g3
I258
sg4
g5
sg6
I10181
sg7
I00
sg8
g5
sg9
S'charlene.jackson@enron.com'
p86
sg11
g5
sg12
g5
sg13
I117
sg14
g5
sg15
I56
sg16
I2435
sg17
F0.09689922480620156
sg18
I44
sg19
g5
sg20
I250000
sg21
I725735
sg22
I25
sg23
F0.03125
sg24
F0.005387822611974991
sg25
I19
sg26
I540672
sg27
I288558
sg28
F0.45348837209302323
sg29
F0.25966787190733387
sg30
I551174
sg31
F0.015661499000766386
sg32
F0.3392857142857143
sg33
F0.3392857142857143
sg34
I185063
ssS'WESTFAHL RICHARD K'
p87
(dp88
g3
g5
sg4
g5
sg6
I51870
sg7
I00
sg8
I-10800
sg9
S'dick.westfahl@enron.com'
p89
sg11
I256191
sg12
g5
sg13
g5
sg14
g5
sg15
g5
sg16
I401130
sg17
F0.0
sg18
F0.0
sg19
g5
sg20
g5
sg21
I384930
sg22
g5
sg23
F0.0
sg24
F0.0
sg25
g5
sg26
I384930
sg27
I63744
sg28
F0.0
sg29
F0.05736201674138679
sg30
I762135
sg31
F0.008728109767124341
sg32
F0.0
sg33
F0.0
sg34
g5
ssS'WALTERS GARETH W'
p90
(dp91
g3
g5
sg4
I53625
sg6
I33785
sg7
I00
sg8
g5
sg9
g5
sg11
g5
sg12
g5
sg13
g5
sg14
g5
sg15
g5
sg16
g5
sg17
F0.0
sg18
F0.0
sg19
g5
sg20
g5
sg21
I1030329
sg22
g5
sg23
F0.0
sg24
F0.02999643301996391
sg25
g5
sg26
g5
sg27
g5
sg28
F0.0
sg29
F0.0
sg30
I87410
sg31
F0.021858206092012007
sg32
F0.0
sg33
F0.0
sg34
I1030329
ssS'WALLS JR ROBERT H'
p92
(dp93
g3
I671
sg4
g5
sg6
I50936
sg7
I00
sg8
g5
sg9
S'rob.walls@enron.com'
p94
sg11
I540751
sg12
g5
sg13
I215
sg14
g5
sg15
I146
sg16
I2
sg17
F0.02533532041728763
sg18
I17
sg19
g5
sg20
I850000
sg21
I5898997
sg22
I17
sg23
F0.10625
sg24
F0.1265428964576616
sg25
I0
sg26
I1552453
sg27
I357091
sg28
F0.3204172876304024
sg29
F0.3213394189288176
sg30
I1798780
sg31
F0.12090713522561493
sg32
F0.0
sg33
F0.0
sg34
I4346544
ssS'KITCHEN LOUISE'
p95
(dp96
g3
I8305
sg4
g5
sg6
I5774
sg7
I00
sg8
g5
sg9
S'louise.kitchen@enron.com'
p97
sg11
g5
sg12
g5
sg13
I3669
sg14
g5
sg15
I1728
sg16
I93925
sg17
F0.030222757375075255
sg18
I445
sg19
g5
sg20
I3100000
sg21
I547143
sg22
I251
sg23
F0.3875
sg24
F0.002359412308887661
sg25
I194
sg26
I466101
sg27
I271442
sg28
F0.441782059000602
sg29
F0.2442655080998292
sg30
I3471141
sg31
F0.012028195938855322
sg32
F0.11226851851851852
sg33
F0.11226851851851852
sg34
I81042
ssS'CHAN RONNIE'
p98
(dp99
g3
g5
sg4
g5
sg6
g5
sg7
I00
sg8
I-98784
sg9
g5
sg11
g5
sg12
I-32460
sg13
g5
sg14
g5
sg15
g5
sg16
g5
sg17
F0.0
sg18
F0.0
sg19
I98784
sg20
g5
sg21
g5
sg22
g5
sg23
F0.0
sg24
F0.0
sg25
g5
sg26
I32460
sg27
g5
sg28
F0.0
sg29
F0.0
sg30
g5
sg31
F0.0008970347602851444
sg32
F0.0
sg33
F0.0
sg34
g5
ssS'BELFER ROBERT'
p100
(dp101
g3
g5
sg4
I-102500
sg6
g5
sg7
I00
sg8
g5
sg9
g5
sg11
g5
sg12
I44093
sg13
g5
sg14
g5
sg15
g5
sg16
g5
sg17
F0.0
sg18
F0.0
sg19
I3285
sg20
g5
sg21
I-44093
sg22
g5
sg23
F0.0
sg24
F9.56376870597464e-05
sg25
g5
sg26
g5
sg27
g5
sg28
F0.0
sg29
F0.0
sg30
I102500
sg31
F0.0
sg32
F0.0
sg33
F0.0
sg34
I3285
ssS'SHANKMAN JEFFREY A'
p102
(dp103
g3
I3221
sg4
g5
sg6
I178979
sg7
I00
sg8
g5
sg9
S'jeffrey.shankman@enron.com'
p104
sg11
I554422
sg12
g5
sg13
I1730
sg14
g5
sg15
I2681
sg16
I1191
sg17
F0.029183483390251473
sg18
I177
sg19
g5
sg20
I2000000
sg21
I2072035
sg22
I94
sg23
F0.25
sg24
F0.041978627000327
sg25
I83
sg26
I630137
sg27
I304110
sg28
F0.5371002794163303
sg29
F0.2736628217749614
sg30
I3038702
sg31
F0.043050832858110864
sg32
F0.030958597538232
sg33
F0.030958597538232
sg34
I1441898
ssS'WODRASKA JOHN'
p105
(dp106
g3
g5
sg4
g5
sg6
g5
sg7
I00
sg8
g5
sg9
S'john.wodraska@enron.com'
p107
sg11
g5
sg12
g5
sg13
g5
sg14
g5
sg15
g5
sg16
I189583
sg17
F0.0
sg18
F0.0
sg19
g5
sg20
g5
sg21
g5
sg22
g5
sg23
F0.0
sg24
F0.0
sg25
g5
sg26
g5
sg27
g5
sg28
F0.0
sg29
F0.0
sg30
I189583
sg31
F0.0008970347602851444
sg32
F0.0
sg33
F0.0
sg34
g5
ssS'BERGSIEKER RICHARD P'
p108
(dp109
g3
I383
sg4
g5
sg6
I59175
sg7
I00
sg8
I-485813
sg9
S'rick.bergsieker@enron.com'
p110
sg11
I180250
sg12
g5
sg13
I233
sg14
g5
sg15
I59
sg16
I427316
sg17
F0.010443864229765013
sg18
I4
sg19
g5
sg20
I250000
sg21
I659249
sg22
I4
sg23
F0.03125
sg24
F0.0
sg25
I0
sg26
I659249
sg27
I187922
sg28
F0.608355091383812
sg29
F0.16910744399590374
sg30
I618850
sg31
F0.014308897611150843
sg32
F0.0
sg33
F0.0
sg34
g5
ssS'URQUHART JOHN A'
p111
(dp112
g3
g5
sg4
g5
sg6
I228656
sg7
I00
sg8
I-36666
sg9
g5
sg11
g5
sg12
g5
sg13
g5
sg14
g5
sg15
g5
sg16
g5
sg17
F0.0
sg18
F0.0
sg19
I36666
sg20
g5
sg21
g5
sg22
g5
sg23
F0.0
sg24
F0.0
sg25
g5
sg26
g5
sg27
g5
sg28
F0.0
sg29
F0.0
sg30
I228656
sg31
F0.0008970347602851444
sg32
F0.0
sg33
F0.0
sg34
g5
ssS'BIBI PHILIPPE A'
p113
(dp114
g3
I1607
sg4
g5
sg6
I38559
sg7
I00
sg8
g5
sg9
S'philippe.bibi@enron.com'
p115
sg11
I369721
sg12
g5
sg13
I1336
sg14
g5
sg15
I40
sg16
I425688
sg17
F0.01431238332296204
sg18
I31
sg19
g5
sg20
I1000000
sg21
I1843816
sg22
I23
sg23
F0.125
sg24
F0.04267257522217057
sg25
I8
sg26
I378082
sg27
I213625
sg28
F0.8313627878033603
sg29
F0.1922370862571968
sg30
I2047593
sg31
F0.038407910490444445
sg32
F0.2
sg33
F0.2
sg34
I1465734
ssS'RIEKER PAULA H'
p116
(dp117
g3
I1328
sg4
I214678
sg6
I33271
sg7
I01
sg8
I-100000
sg9
S'paula.rieker@enron.com'
p118
sg11
g5
sg12
g5
sg13
I1258
sg14
g5
sg15
I82
sg16
I1950
sg17
F0.02635542168674699
sg18
I83
sg19
g5
sg20
I700000
sg21
I1918887
sg22
I35
sg23
F0.0875
sg24
F0.04760742164755116
sg25
I48
sg26
I283649
sg27
I249201
sg28
F0.947289156626506
sg29
F0.2242512539842233
sg30
I1099100
sg31
F0.03993516643785936
sg32
F0.5853658536585366
sg33
F0.5853658536585366
sg34
I1635238
ssS'WHALEY DAVID A'
p119
(dp120
g3
g5
sg4
g5
sg6
g5
sg7
I00
sg8
g5
sg9
g5
sg11
g5
sg12
g5
sg13
g5
sg14
g5
sg15
g5
sg16
g5
sg17
F0.0
sg18
F0.0
sg19
g5
sg20
g5
sg21
I98718
sg22
g5
sg23
F0.0
sg24
F0.002874021671587228
sg25
g5
sg26
g5
sg27
g5
sg28
F0.0
sg29
F0.0
sg30
g5
sg31
F0.002905368905519737
sg32
F0.0
sg33
F0.0
sg34
I98718
ssS'BECK SALLY W'
p121
(dp122
g3
I7315
sg4
g5
sg6
I37172
sg7
I00
sg8
g5
sg9
S'sally.beck@enron.com'
p123
sg11
g5
sg12
g5
sg13
I2639
sg14
g5
sg15
I4343
sg16
I566
sg17
F0.01968557758031442
sg18
I530
sg19
g5
sg20
I700000
sg21
I126027
sg22
I144
sg23
F0.0875
sg24
F0.0
sg25
I386
sg26
I126027
sg27
I231330
sg28
F0.36076555023923446
sg29
F0.2081694799947447
sg30
I969068
sg31
F0.00346094739345721
sg32
F0.08887865530739121
sg33
F0.08887865530739121
sg34
g5
ssS'HAUG DAVID L'
p124
(dp125
g3
I573
sg4
g5
sg6
I475
sg7
I00
sg8
g5
sg9
S'david.haug@enron.com'
p126
sg11
g5
sg12
g5
sg13
I471
sg14
g5
sg15
I19
sg16
g5
sg17
F0.006980802792321117
sg18
I11
sg19
g5
sg20
g5
sg21
I2217299
sg22
I4
sg23
F0.0
sg24
F0.0
sg25
I7
sg26
I2217299
sg27
g5
sg28
F0.8219895287958116
sg29
F0.0
sg30
I475
sg31
F0.04600610597216664
sg32
F0.3684210526315789
sg33
F0.3684210526315789
sg34
g5
ssS'ECHOLS JOHN B'
p127
(dp128
g3
g5
sg4
g5
sg6
I21530
sg7
I00
sg8
g5
sg9
S'john.echols@enron.com'
p129
sg11
I2234774
sg12
g5
sg13
g5
sg14
g5
sg15
g5
sg16
I53775
sg17
F0.0
sg18
F0.0
sg19
g5
sg20
I200000
sg21
I1008941
sg22
g5
sg23
F0.025
sg24
F0.017509935838611795
sg25
g5
sg26
I407503
sg27
I182245
sg28
F0.0
sg29
F0.16399881935608113
sg30
I2692324
sg31
F0.02142308533694933
sg32
F0.0
sg33
F0.0
sg34
I601438
ssS'MENDELSOHN JOHN'
p130
(dp131
g3
g5
sg4
g5
sg6
I148
sg7
I00
sg8
I-103750
sg9
g5
sg11
g5
sg12
g5
sg13
g5
sg14
g5
sg15
g5
sg16
g5
sg17
F0.0
sg18
F0.0
sg19
I103750
sg20
g5
sg21
g5
sg22
g5
sg23
F0.0
sg24
F0.0
sg25
g5
sg26
g5
sg27
g5
sg28
F0.0
sg29
F0.0
sg30
I148
sg31
F0.0008970347602851444
sg32
F0.0
sg33
F0.0
sg34
g5
ssS'HICKERSON GARY J'
p132
(dp133
g3
I1320
sg4
g5
sg6
I98849
sg7
I00
sg8
g5
sg9
S'gary.hickerson@enron.com'
p134
sg11
I69223
sg12
g5
sg13
I900
sg14
g5
sg15
I27
sg16
I1936
sg17
F0.030303030303030304
sg18
I41
sg19
g5
sg20
I1700000
sg21
I441096
sg22
I40
sg23
F0.2125
sg24
F0.0
sg25
I1
sg26
I441096
sg27
I211788
sg28
F0.6818181818181818
sg29
F0.19058400479456616
sg30
I2081796
sg31
F0.009870759492617625
sg32
F0.037037037037037035
sg33
F0.037037037037037035
sg34
g5
ssS'CLINE KENNETH W'
p135
(dp136
g3
g5
sg4
g5
sg6
g5
sg7
I00
sg8
g5
sg9
g5
sg11
g5
sg12
I-472568
sg13
g5
sg14
g5
sg15
g5
sg16
g5
sg17
F0.0
sg18
F0.0
sg19
g5
sg20
g5
sg21
I189518
sg22
g5
sg23
F0.0
sg24
F0.0
sg25
g5
sg26
I662086
sg27
g5
sg28
F0.0
sg29
F0.0
sg30
g5
sg31
F0.004752618043339598
sg32
F0.0
sg33
F0.0
sg34
g5
ssS'LEWIS RICHARD'
p137
(dp138
g3
I952
sg4
g5
sg6
g5
sg7
I00
sg8
g5
sg9
S'richard.lewis@enron.com'
p139
sg11
g5
sg12
g5
sg13
I739
sg14
g5
sg15
I26
sg16
g5
sg17
F0.01050420168067227
sg18
I10
sg19
g5
sg20
g5
sg21
I850477
sg22
I10
sg23
F0.0
sg24
F0.024760320601982324
sg25
I0
sg26
g5
sg27
g5
sg28
F0.7762605042016807
sg29
F0.0
sg30
g5
sg31
F0.01819926939669067
sg32
F0.0
sg33
F0.0
sg34
I850477
ssS'HAYES ROBERT E'
p140
(dp141
g3
I504
sg4
I7961
sg6
g5
sg7
I00
sg8
g5
sg9
S'robert.hayes@enron.com'
p142
sg11
g5
sg12
g5
sg13
I50
sg14
g5
sg15
I12
sg16
g5
sg17
F0.031746031746031744
sg18
I16
sg19
g5
sg20
g5
sg21
I151418
sg22
I16
sg23
F0.0
sg24
F0.0
sg25
I0
sg26
I151418
sg27
g5
sg28
F0.0992063492063492
sg29
F0.0
sg30
I7961
sg31
F0.003977505794981264
sg32
F0.0
sg33
F0.0
sg34
g5
ssS'MCCARTY DANNY J'
p143
(dp144
g3
I1433
sg4
g5
sg6
g5
sg7
I00
sg8
g5
sg9
S'danny.mccarty@enron.com'
p145
sg11
g5
sg12
g5
sg13
I508
sg14
g5
sg15
I215
sg16
g5
sg17
F0.017445917655268667
sg18
I27
sg19
g5
sg20
g5
sg21
I758931
sg22
I25
sg23
F0.0
sg24
F0.019342249114252363
sg25
I2
sg26
I94556
sg27
g5
sg28
F0.35450104675505933
sg29
F0.0
sg30
g5
sg31
F0.016336843520359644
sg32
F0.009302325581395349
sg33
F0.009302325581395349
sg34
I664375
ssS'KOPPER MICHAEL J'
p146
(dp147
g3
g5
sg4
g5
sg6
I118134
sg7
I01
sg8
g5
sg9
S'michael.kopper@enron.com'
p148
sg11
I602671
sg12
g5
sg13
g5
sg14
g5
sg15
g5
sg16
I907502
sg17
F0.0
sg18
F0.0
sg19
g5
sg20
I800000
sg21
I985032
sg22
g5
sg23
F0.1
sg24
F0.0
sg25
g5
sg26
I985032
sg27
I224305
sg28
F0.0
sg29
F0.20184781571876198
sg30
I2652612
sg31
F0.0209366769709126
sg32
F0.0
sg33
F0.0
sg34
g5
ssS'LEFF DANIEL P'
p149
(dp150
g3
I2822
sg4
g5
sg6
g5
sg7
I00
sg8
g5
sg9
S'dan.leff@enron.com'
p151
sg11
I1387399
sg12
g5
sg13
I2672
sg14
g5
sg15
I63
sg16
I3083
sg17
F0.02374202693125443
sg18
I81
sg19
g5
sg20
I1000000
sg21
I360528
sg22
I67
sg23
F0.125
sg24
F0.0
sg25
I14
sg26
I360528
sg27
I273746
sg28
F0.9468462083628633
sg29
F0.2463388340061444
sg30
I2664228
sg31
F0.008231671733412002
sg32
F0.2222222222222222
sg33
F0.2222222222222222
sg34
g5
ssS'LAVORATO JOHN J'
p152
(dp153
g3
I7259
sg4
g5
sg6
I49537
sg7
I00
sg8
g5
sg9
S'john.lavorato@enron.com'
p154
sg11
I2035380
sg12
g5
sg13
I3962
sg14
g5
sg15
I2585
sg16
I1552
sg17
F0.07273729163796666
sg18
I939
sg19
g5
sg20
I8000000
sg21
I5167144
sg22
I528
sg23
F1.0
sg24
F0.12108269780610348
sg25
I411
sg26
I1008149
sg27
I339288
sg28
F0.5458052073288332
sg29
F0.30531883684976846
sg30
I10425757
sg31
F0.10601820545401935
sg32
F0.15899419729206962
sg33
F0.15899419729206962
sg34
I4158995
ssS'BERBERIAN DAVID'
p155
(dp156
g3
g5
sg4
g5
sg6
I11892
sg7
I00
sg8
g5
sg9
S'david.berberian@enron.com'
p157
sg11
g5
sg12
g5
sg13
g5
sg14
g5
sg15
g5
sg16
g5
sg17
F0.0
sg18
F0.0
sg19
g5
sg20
g5
sg21
I2493616
sg22
g5
sg23
F0.0
sg24
F0.04729177361007726
sg25
g5
sg26
I869220
sg27
I216582
sg28
F0.0
sg29
F0.19489803447984178
sg30
I228474
sg31
F0.05162754143488657
sg32
F0.0
sg33
F0.0
sg34
I1624396
ssS'DETMERING TIMOTHY J'
p158
(dp159
g3
g5
sg4
I875307
sg6
I52255
sg7
I00
sg8
I-775241
sg9
S'timothy.detmering@enron.com'
p160
sg11
I415657
sg12
I-315068
sg13
g5
sg14
g5
sg15
g5
sg16
I1105
sg17
F0.0
sg18
F0.0
sg19
g5
sg20
I425000
sg21
I2027865
sg22
g5
sg23
F0.053125
sg24
F0.05903814863604646
sg25
g5
sg26
I315068
sg27
I210500
sg28
F0.0
sg29
F0.18942495802054968
sg30
I1204583
sg31
F0.0421522315980062
sg32
F0.0
sg33
F0.0
sg34
I2027865
ssS'WAKEHAM JOHN'
p161
(dp162
g3
g5
sg4
g5
sg6
I103773
sg7
I00
sg8
g5
sg9
g5
sg11
g5
sg12
g5
sg13
g5
sg14
g5
sg15
g5
sg16
g5
sg17
F0.0
sg18
F0.0
sg19
I109298
sg20
g5
sg21
g5
sg22
g5
sg23
F0.0
sg24
F0.0
sg25
g5
sg26
g5
sg27
g5
sg28
F0.0
sg29
F0.0
sg30
I213071
sg31
F0.0008970347602851444
sg32
F0.0
sg33
F0.0
sg34
g5
ssS'POWERS WILLIAM'
p163
(dp164
g3
I653
sg4
g5
sg6
g5
sg7
I00
sg8
I-17500
sg9
S'ken.powers@enron.com'
p165
sg11
g5
sg12
g5
sg13
I12
sg14
g5
sg15
I26
sg16
g5
sg17
F0.0
sg18
I0
sg19
I17500
sg20
g5
sg21
g5
sg22
I0
sg23
F0.0
sg24
F0.0
sg25
I0
sg26
g5
sg27
g5
sg28
F0.018376722817764167
sg29
F0.0
sg30
g5
sg31
F0.0008970347602851444
sg32
F0.0
sg33
F0.0
sg34
g5
ssS'GOLD JOSEPH'
p166
(dp167
g3
g5
sg4
g5
sg6
g5
sg7
I00
sg8
g5
sg9
S'joe.gold@enron.com'
p168
sg11
I304805
sg12
g5
sg13
g5
sg14
g5
sg15
g5
sg16
I819288
sg17
F0.0
sg18
F0.0
sg19
g5
sg20
I750000
sg21
I877611
sg22
g5
sg23
F0.09375
sg24
F0.01270845813299397
sg25
g5
sg26
I441096
sg27
I272880
sg28
F0.0
sg29
F0.24555953702920474
sg30
I2146973
sg31
F0.018751287657765604
sg32
F0.0
sg33
F0.0
sg34
I436515
ssS'BANNANTINE JAMES M'
p169
(dp170
g3
I566
sg4
g5
sg6
I56301
sg7
I00
sg8
I-5104
sg9
S'james.bannantine@enron.com'
p171
sg11
g5
sg12
I-560222
sg13
I465
sg14
g5
sg15
I29
sg16
I864523
sg17
F0.06890459363957598
sg18
I39
sg19
g5
sg20
g5
sg21
I5243487
sg22
I39
sg23
F0.0
sg24
F0.11779759420414072
sg25
I0
sg26
I1757552
sg27
I477
sg28
F0.8215547703180212
sg29
F0.0004292432540418157
sg30
I916197
sg31
F0.10757133916468656
sg32
F0.0
sg33
F0.0
sg34
I4046157
ssS'DUNCAN JOHN H'
p172
(dp173
g3
g5
sg4
g5
sg6
g5
sg7
I00
sg8
I-25000
sg9
g5
sg11
g5
sg12
g5
sg13
g5
sg14
g5
sg15
g5
sg16
g5
sg17
F0.0
sg18
F0.0
sg19
I102492
sg20
g5
sg21
I371750
sg22
g5
sg23
F0.0
sg24
F0.0108229254686334
sg25
g5
sg26
g5
sg27
g5
sg28
F0.0
sg29
F0.0
sg30
I77492
sg31
F0.008459973823991458
sg32
F0.0
sg33
F0.0
sg34
I371750
ssS'SHAPIRO RICHARD S'
p174
(dp175
g3
I15149
sg4
g5
sg6
I137767
sg7
I00
sg8
g5
sg9
S'richard.shapiro@enron.com'
p176
sg11
g5
sg12
g5
sg13
I4527
sg14
g5
sg15
I1215
sg16
I705
sg17
F0.0048848108786058485
sg18
I139
sg19
g5
sg20
I650000
sg21
I987001
sg22
I74
sg23
F0.08125
sg24
F0.017696232812582972
sg25
I65
sg26
I379164
sg27
I269076
sg28
F0.29883160604660375
sg29
F0.24213638956929895
sg30
I1057548
sg31
F0.020976734609154533
sg32
F0.053497942386831275
sg33
F0.053497942386831275
sg34
I607837
ssS'SHERRIFF JOHN R'
p177
(dp178
g3
I3187
sg4
g5
sg6
g5
sg7
I00
sg8
g5
sg9
S'john.sherriff@enron.com'
p179
sg11
I554422
sg12
g5
sg13
I2103
sg14
g5
sg15
I92
sg16
I1852186
sg17
F0.008785691873235017
sg18
I51
sg19
g5
sg20
I1500000
sg21
I3128982
sg22
I28
sg23
F0.1875
sg24
F0.05343942818387031
sg25
I23
sg26
I1293424
sg27
I428780
sg28
F0.6598682146219015
sg29
F0.385850990499056
sg30
I4335388
sg31
F0.06455352486770655
sg32
F0.25
sg33
F0.25
sg34
I1835558
ssS'SHELBY REX'
p180
(dp181
g3
I225
sg4
g5
sg6
I22884
sg7
I01
sg8
I-4167
sg9
S'rex.shelby@enron.com'
p182
sg11
g5
sg12
g5
sg13
I91
sg14
g5
sg15
I39
sg16
I1573324
sg17
F0.057777777777777775
sg18
I27
sg19
g5
sg20
I200000
sg21
I2493616
sg22
I13
sg23
F0.025
sg24
F0.04729177361007726
sg25
I14
sg26
I869220
sg27
I211844
sg28
F0.40444444444444444
sg29
F0.19063439813256688
sg30
I2003885
sg31
F0.05162754143488657
sg32
F0.358974358974359
sg33
F0.358974358974359
sg34
I1624396
ssS'LEMAISTRE CHARLES'
p183
(dp184
g3
g5
sg4
g5
sg6
g5
sg7
I00
sg8
I-25000
sg9
g5
sg11
g5
sg12
g5
sg13
g5
sg14
g5
sg15
g5
sg16
g5
sg17
F0.0
sg18
F0.0
sg19
I112492
sg20
g5
sg21
I412878
sg22
g5
sg23
F0.0
sg24
F0.012020303487931193
sg25
g5
sg26
g5
sg27
g5
sg28
F0.0
sg29
F0.0
sg30
I87492
sg31
F0.009296688169148453
sg32
F0.0
sg33
F0.0
sg34
I412878
ssS'DEFFNER JOSEPH M'
p185
(dp186
g3
I714
sg4
g5
sg6
I41626
sg7
I00
sg8
g5
sg9
S'joseph.deffner@enron.com'
p187
sg11
I335349
sg12
g5
sg13
I552
sg14
g5
sg15
I74
sg16
I25553
sg17
F0.16106442577030813
sg18
I119
sg19
g5
sg20
I600000
sg21
I159211
sg22
I115
sg23
F0.075
sg24
F0.0005059335542539643
sg25
I4
sg26
I141833
sg27
I206121
sg28
F0.773109243697479
sg29
F0.1854843789651008
sg30
I1208649
sg31
F0.004136047783208469
sg32
F0.05405405405405406
sg33
F0.05405405405405406
sg34
I17378
ssS'KISHKILL JOSEPH G'
p188
(dp189
g3
g5
sg4
g5
sg6
I116335
sg7
I00
sg8
I-51042
sg9
S'joe.kishkill@enron.com'
p190
sg11
g5
sg12
g5
sg13
g5
sg14
g5
sg15
g5
sg16
I465357
sg17
F0.0
sg18
F0.0
sg19
g5
sg20
g5
sg21
I1034346
sg22
g5
sg23
F0.0
sg24
F0.0
sg25
g5
sg26
I1034346
sg27
I174246
sg28
F0.0
sg29
F0.15680067095130024
sg30
I704896
sg31
F0.021939928556622388
sg32
F0.0
sg33
F0.0
sg34
g5
ssS'WHALLEY LAWRENCE G'
p191
(dp192
g3
I6019
sg4
g5
sg6
I57838
sg7
I00
sg8
g5
sg9
S'greg.whalley@enron.com'
p193
sg11
I808346
sg12
g5
sg13
I3920
sg14
g5
sg15
I556
sg16
I301026
sg17
F0.03090214321315833
sg18
I210
sg19
g5
sg20
I3000000
sg21
I6079137
sg22
I186
sg23
F0.375
sg24
F0.09557829561938053
sg25
I24
sg26
I2796177
sg27
I510364
sg28
F0.6512709752450573
sg29
F0.45926688491781387
sg30
I4677574
sg31
F0.12457193103714434
sg32
F0.04316546762589928
sg33
F0.04316546762589928
sg34
I3282960
ssS'MCCONNELL MICHAEL S'
p194
(dp195
g3
I3329
sg4
g5
sg6
I81364
sg7
I00
sg8
g5
sg9
S'mike.mcconnell@enron.com'
p196
sg11
I554422
sg12
g5
sg13
I2189
sg14
g5
sg15
I2742
sg16
I540
sg17
F0.02763592670471613
sg18
I286
sg19
g5
sg20
I1100000
sg21
I3101279
sg22
I92
sg23
F0.1375
sg24
F0.04725142236676986
sg25
I194
sg26
I1478269
sg27
I365038
sg28
F0.657554821267648
sg29
F0.3284907735197407
sg30
I2101364
sg31
F0.06398993078328999
sg32
F0.07075127644055434
sg33
F0.07075127644055434
sg34
I1623010
ssS'PIRO JIM'
p197
(dp198
g3
I58
sg4
g5
sg6
g5
sg7
I00
sg8
g5
sg9
S'jim.piro@enron.com'
p199
sg11
g5
sg12
g5
sg13
I3
sg14
g5
sg15
I16
sg16
g5
sg17
F0.0
sg18
I1
sg19
g5
sg20
g5
sg21
I47304
sg22
I0
sg23
F0.0
sg24
F0.0
sg25
I1
sg26
I47304
sg27
g5
sg28
F0.05172413793103448
sg29
F0.0
sg30
g5
sg31
F0.0018593945974594913
sg32
F0.0625
sg33
F0.0625
sg34
g5
ssS'DELAINEY DAVID W'
p200
(dp201
g3
I3093
sg4
g5
sg6
I86174
sg7
I01
sg8
g5
sg9
S'david.delainey@enron.com'
p202
sg11
I1294981
sg12
g5
sg13
I2097
sg14
g5
sg15
I3069
sg16
I1661
sg17
F0.02133850630455868
sg18
I675
sg19
g5
sg20
I3000000
sg21
I3614261
sg22
I66
sg23
F0.375
sg24
F0.06670220642694573
sg25
I609
sg26
I1323148
sg27
I365163
sg28
F0.6779825412221144
sg29
F0.3286032586492066
sg30
I4747979
sg31
F0.07442611533413919
sg32
F0.198435972629521
sg33
F0.198435972629521
sg34
I2291113
ssS'SULLIVAN-SHAKLOVITZ COLLEEN'
p203
(dp204
g3
g5
sg4
I181993
sg6
g5
sg7
I00
sg8
g5
sg9
g5
sg11
I554422
sg12
g5
sg13
g5
sg14
g5
sg15
g5
sg16
I162
sg17
F0.0
sg18
F0.0
sg19
g5
sg20
I100000
sg21
I1362375
sg22
g5
sg23
F0.0125
sg24
F0.03966343802375099
sg25
g5
sg26
g5
sg27
I162779
sg28
F0.0
sg29
F0.14648173511461784
sg30
I999356
sg31
F0.028613400885145638
sg32
F0.0
sg33
F0.0
sg34
I1362375
ssS'WROBEL BRUCE'
p205
(dp206
g3
g5
sg4
g5
sg6
g5
sg7
I00
sg8
g5
sg9
g5
sg11
g5
sg12
g5
sg13
g5
sg14
g5
sg15
g5
sg16
g5
sg17
F0.0
sg18
F0.0
sg19
g5
sg20
g5
sg21
I139130
sg22
g5
sg23
F0.0
sg24
F0.004050554459854647
sg25
g5
sg26
g5
sg27
g5
sg28
F0.0
sg29
F0.0
sg30
g5
sg31
F0.0037275168367705766
sg32
F0.0
sg33
F0.0
sg34
I139130
ssS'LINDHOLM TOD A'
p207
(dp208
g3
g5
sg4
I204075
sg6
I57727
sg7
I00
sg8
g5
sg9
S'tod.lindholm@enron.com'
p209
sg11
I175000
sg12
g5
sg13
g5
sg14
g5
sg15
g5
sg16
I2630
sg17
F0.0
sg18
F0.0
sg19
g5
sg20
I200000
sg21
I3064208
sg22
g5
sg23
F0.025
sg24
F0.0742206969620463
sg25
g5
sg26
I514847
sg27
I236457
sg28
F0.0
sg29
F0.21278317006491743
sg30
I875889
sg31
F0.06323575266888339
sg32
F0.0
sg33
F0.0
sg34
I2549361
ssS'MEYER JEROME J'
p210
(dp211
g3
g5
sg4
g5
sg6
I2151
sg7
I00
sg8
I-38346
sg9
g5
sg11
g5
sg12
g5
sg13
g5
sg14
g5
sg15
g5
sg16
g5
sg17
F0.0
sg18
F0.0
sg19
I38346
sg20
g5
sg21
g5
sg22
g5
sg23
F0.0
sg24
F0.0
sg25
g5
sg26
g5
sg27
g5
sg28
F0.0
sg29
F0.0
sg30
I2151
sg31
F0.0008970347602851444
sg32
F0.0
sg33
F0.0
sg34
g5
ssS'LAY KENNETH L'
p212
(dp213
g3
I4273
sg4
I202911
sg6
I99832
sg7
I01
sg8
I-300000
sg9
S'kenneth.lay@enron.com'
p214
sg11
I3600000
sg12
g5
sg13
I2411
sg14
I81525000
sg15
I36
sg16
I10359729
sg17
F0.028785396676807865
sg18
I139
sg19
g5
sg20
I7000000
sg21
I49110078
sg22
I123
sg23
F0.875
sg24
F1.0
sg25
I16
sg26
I14761694
sg27
I1072321
sg28
F0.5642405803884858
sg29
F0.9649613321118948
sg30
I103559793
sg31
F1.0
sg32
F0.4444444444444444
sg33
F0.4444444444444444
sg34
I34348384
ssS'BUTTS ROBERT H'
p215
(dp216
g3
g5
sg4
g5
sg6
I9410
sg7
I00
sg8
I-75000
sg9
S'bob.butts@enron.com'
p217
sg11
I175000
sg12
g5
sg13
g5
sg14
g5
sg15
g5
sg16
I150656
sg17
F0.0
sg18
F0.0
sg19
g5
sg20
I750000
sg21
I417619
sg22
g5
sg23
F0.09375
sg24
F0.0
sg25
g5
sg26
I417619
sg27
I261516
sg28
F0.0
sg29
F0.23533328893920225
sg30
I1271582
sg31
F0.00939313980089299
sg32
F0.0
sg33
F0.0
sg34
g5
ssS'OLSON CINDY K'
p218
(dp219
g3
I1184
sg4
I77716
sg6
I63791
sg7
I00
sg8
g5
sg9
S'cindy.olson@enron.com'
p220
sg11
I100000
sg12
g5
sg13
I856
sg14
g5
sg15
I52
sg16
I972
sg17
F0.016891891891891893
sg18
I35
sg19
g5
sg20
I750000
sg21
I2606763
sg22
I20
sg23
F0.09375
sg24
F0.047659709405834055
sg25
I15
sg26
I969729
sg27
I329078
sg28
F0.722972972972973
sg29
F0.296131051474995
sg30
I1321557
sg31
F0.053929421370975825
sg32
F0.28846153846153844
sg33
F0.28846153846153844
sg34
I1637034
ssS'MCDONALD REBECCA'
p221
(dp222
g3
I894
sg4
g5
sg6
g5
sg7
I00
sg8
g5
sg9
S'rebecca.mcdonald@enron.com'
p223
sg11
g5
sg12
g5
sg13
I720
sg14
g5
sg15
I13
sg16
g5
sg17
F0.06040268456375839
sg18
I55
sg19
g5
sg20
g5
sg21
I1691366
sg22
I54
sg23
F0.0
sg24
F0.022047645676722374
sg25
I1
sg26
I934065
sg27
g5
sg28
F0.8053691275167785
sg29
F0.0
sg30
g5
sg31
F0.035306444289336096
sg32
F0.07692307692307693
sg33
F0.07692307692307693
sg34
I757301
ssS'CUMBERLAND MICHAEL S'
p224
(dp225
g3
g5
sg4
g5
sg6
I22344
sg7
I00
sg8
g5
sg9
g5
sg11
I275000
sg12
g5
sg13
g5
sg14
g5
sg15
g5
sg16
I713
sg17
F0.0
sg18
F0.0
sg19
g5
sg20
I325000
sg21
I207940
sg22
g5
sg23
F0.040625
sg24
F0.0
sg25
g5
sg26
I207940
sg27
I184899
sg28
F0.0
sg29
F0.16638710362490078
sg30
I807956
sg31
F0.005127398039120627
sg32
F0.0
sg33
F0.0
sg34
g5
ssS'GAHN ROBERT S'
p226
(dp227
g3
g5
sg4
I73122
sg6
I50080
sg7
I00
sg8
I-1042
sg9
g5
sg11
g5
sg12
g5
sg13
g5
sg14
g5
sg15
g5
sg16
I76547
sg17
F0.0
sg18
F0.0
sg19
g5
sg20
I509870
sg21
I318607
sg22
g5
sg23
F0.06373375
sg24
F0.002423316334183291
sg25
g5
sg26
I235370
sg27
I192008
sg28
F0.0
sg29
F0.17278435790788457
sg30
I900585
sg31
F0.007378824474529333
sg32
F0.0
sg33
F0.0
sg34
I83237
ssS'MCCLELLAN GEORGE'
p228
(dp229
g3
I1744
sg4
g5
sg6
I228763
sg7
I00
sg8
I-125000
sg9
S'george.mcclellan@enron.com'
p230
sg11
g5
sg12
g5
sg13
I1469
sg14
g5
sg15
I49
sg16
I51587
sg17
F0.02981651376146789
sg18
I52
sg19
g5
sg20
I900000
sg21
I947861
sg22
I52
sg23
F0.1125
sg24
F0.014753678076965718
sg25
I0
sg26
I441096
sg27
I263413
sg28
F0.8423165137614679
sg29
F0.2370403632639765
sg30
I1318763
sg31
F0.02018046444115597
sg32
F0.0
sg33
F0.0
sg34
I506765
ssS'HERMANN ROBERT J'
p231
(dp232
g3
g5
sg4
g5
sg6
I48357
sg7
I00
sg8
I-280000
sg9
S'robert.hermann@enron.com'
p233
sg11
I150000
sg12
g5
sg13
g5
sg14
g5
sg15
g5
sg16
I416441
sg17
F0.0
sg18
F0.0
sg19
g5
sg20
I700000
sg21
I668132
sg22
g5
sg23
F0.0875
sg24
F0.005458772092451278
sg25
g5
sg26
I480632
sg27
I262663
sg28
F0.0
sg29
F0.2363654524871812
sg30
I1297461
sg31
F0.014489614726693285
sg32
F0.0
sg33
F0.0
sg34
I187500
ssS'SCRIMSHAW MATTHEW'
p234
(dp235
g3
g5
sg4
g5
sg6
g5
sg7
I00
sg8
g5
sg9
S'matthew.scrimshaw@enron.com'
p236
sg11
g5
sg12
g5
sg13
g5
sg14
g5
sg15
g5
sg16
g5
sg17
F0.0
sg18
F0.0
sg19
g5
sg20
g5
sg21
I759557
sg22
g5
sg23
F0.0
sg24
F0.02211332562253875
sg25
g5
sg26
g5
sg27
g5
sg28
F0.0
sg29
F0.0
sg30
g5
sg31
F0.01634957896045078
sg32
F0.0
sg33
F0.0
sg34
I759557
ssS'GATHMANN WILLIAM D'
p237
(dp238
g3
g5
sg4
g5
sg6
g5
sg7
I00
sg8
g5
sg9
g5
sg11
g5
sg12
I-72419
sg13
g5
sg14
g5
sg15
g5
sg16
g5
sg17
F0.0
sg18
F0.0
sg19
g5
sg20
g5
sg21
I1945360
sg22
g5
sg23
F0.0
sg24
F0.051058180786612846
sg25
g5
sg26
I264013
sg27
g5
sg28
F0.0
sg29
F0.0
sg30
g5
sg31
F0.040473737213470654
sg32
F0.0
sg33
F0.0
sg34
I1753766
ssS'HAEDICKE MARK E'
p239
(dp240
g3
I4009
sg4
I2157527
sg6
I76169
sg7
I00
sg8
I-934484
sg9
S'mark.haedicke@enron.com'
p241
sg11
I983346
sg12
I-329825
sg13
I1847
sg14
g5
sg15
I1941
sg16
I52382
sg17
F0.04489897730107259
sg18
I241
sg19
g5
sg20
I1150000
sg21
I803094
sg22
I180
sg23
F0.14375
sg24
F0.017722813393491816
sg25
I61
sg26
I524169
sg27
I374125
sg28
F0.4607133948615615
sg29
F0.3366679924913926
sg30
I3859065
sg31
F0.017235302371389805
sg32
F0.03142709943328181
sg33
F0.03142709943328181
sg34
I608750
ssS'BOWEN JR RAYMOND M'
p242
(dp243
g3
I1858
sg4
g5
sg6
I65907
sg7
I01
sg8
I-833
sg9
S'raymond.bowen@enron.com'
p244
sg11
I974293
sg12
g5
sg13
I1593
sg14
g5
sg15
I27
sg16
I1621
sg17
F0.07534983853606028
sg18
I155
sg19
g5
sg20
I1350000
sg21
I252055
sg22
I140
sg23
F0.16875
sg24
F0.0
sg25
I15
sg26
I252055
sg27
I278601
sg28
F0.8573735199138859
sg29
F0.25070775643459936
sg30
I2669589
sg31
F0.006024880370782777
sg32
F0.5555555555555556
sg33
F0.5555555555555556
sg34
g5
ssS'GILLIS JOHN'
p245
(dp246
g3
g5
sg4
g5
sg6
g5
sg7
I00
sg8
g5
sg9
g5
sg11
g5
sg12
g5
sg13
g5
sg14
g5
sg15
g5
sg16
g5
sg17
F0.0
sg18
F0.0
sg19
g5
sg20
g5
sg21
I85641
sg22
g5
sg23
F0.0
sg24
F0.00028539916171893266
sg25
g5
sg26
I75838
sg27
g5
sg28
F0.0
sg29
F0.0
sg30
g5
sg31
F0.0026393284101973767
sg32
F0.0
sg33
F0.0
sg34
I9803
ssS'FITZGERALD JAY L'
p247
(dp248
g3
I936
sg4
g5
sg6
I23870
sg7
I00
sg8
g5
sg9
S'jay.fitzgerald@enron.com'
p249
sg11
I556416
sg12
g5
sg13
I723
sg14
g5
sg15
I16
sg16
I285414
sg17
F0.0010683760683760685
sg18
I9
sg19
g5
sg20
I350000
sg21
I1621236
sg22
I1
sg23
F0.04375
sg24
F0.0193447528710521
sg25
I8
sg26
I956775
sg27
I199157
sg28
F0.7724358974358975
sg29
F0.17921760743229745
sg30
I1414857
sg31
F0.033879708804365756
sg32
F0.5
sg33
F0.5
sg34
I664461
ssS'MORAN MICHAEL P'
p250
(dp251
g3
I672
sg4
g5
sg6
g5
sg7
I00
sg8
g5
sg9
S'michael.moran@enron.com'
p252
sg11
g5
sg12
g5
sg13
I127
sg14
g5
sg15
I19
sg16
g5
sg17
F0.0
sg18
I0
sg19
g5
sg20
g5
sg21
I221141
sg22
I0
sg23
F0.0
sg24
F0.0017333857685997687
sg25
I0
sg26
I161602
sg27
g5
sg28
F0.18898809523809523
sg29
F0.0
sg30
g5
sg31
F0.005395961209477015
sg32
F0.0
sg33
F0.0
sg34
I59539
ssS'REDMOND BRIAN L'
p253
(dp254
g3
I1671
sg4
g5
sg6
I14689
sg7
I00
sg8
g5
sg9
S'brian.redmond@enron.com'
p255
sg11
g5
sg12
g5
sg13
I1063
sg14
g5
sg15
I221
sg16
g5
sg17
F0.12208258527827648
sg18
I253
sg19
g5
sg20
g5
sg21
I7890324
sg22
I204
sg23
F0.0
sg24
F0.218614040183084
sg25
I49
sg26
I381285
sg27
I96840
sg28
F0.6361460203470976
sg29
F0.08714447949981012
sg30
I111529
sg31
F0.16141899738274498
sg32
F0.22171945701357465
sg33
F0.22171945701357465
sg34
I7509039
ssS'BAZELIDES PHILIP J'
p256
(dp257
g3
g5
sg4
I684694
sg6
g5
sg7
I00
sg8
g5
sg9
g5
sg11
I93750
sg12
g5
sg13
g5
sg14
g5
sg15
g5
sg16
I874
sg17
F0.0
sg18
F0.0
sg19
g5
sg20
g5
sg21
I1599641
sg22
g5
sg23
F0.0
sg24
F0.046571070126617896
sg25
g5
sg26
g5
sg27
I80818
sg28
F0.0
sg29
F0.0727265855453909
sg30
I860136
sg31
F0.033440376809528535
sg32
F0.0
sg33
F0.0
sg34
I1599641
ssS'BELDEN TIMOTHY N'
p258
(dp259
g3
I7991
sg4
I2144013
sg6
I17355
sg7
I01
sg8
I-2334434
sg9
S'tim.belden@enron.com'
p260
sg11
g5
sg12
g5
sg13
I5521
sg14
g5
sg15
I484
sg16
I210698
sg17
F0.028532098610937303
sg18
I336
sg19
g5
sg20
I5249999
sg21
I1110705
sg22
I228
sg23
F0.656249875
sg24
F0.02774907838459009
sg25
I108
sg26
I157569
sg27
I213999
sg28
F0.6909022650481792
sg29
F0.1925736417645587
sg30
I5501630
sg31
F0.02349338777374559
sg32
F0.2231404958677686
sg33
F0.2231404958677686
sg34
I953136
ssS'DURAN WILLIAM D'
p261
(dp262
g3
I904
sg4
g5
sg6
I25785
sg7
I00
sg8
g5
sg9
S'w.duran@enron.com'
p263
sg11
I1105218
sg12
g5
sg13
I599
sg14
g5
sg15
I12
sg16
I1568
sg17
F0.1172566371681416
sg18
I109
sg19
g5
sg20
I750000
sg21
I1640910
sg22
I106
sg23
F0.09375
sg24
F0.04226891722184077
sg25
I3
sg26
I189041
sg27
I210692
sg28
F0.6626106194690266
sg29
F0.18959773517940928
sg30
I2093263
sg31
F0.03427995968032906
sg32
F0.25
sg33
F0.25
sg34
I1451869
ssS'THORN TERENCE H'
p264
(dp265
g3
I266
sg4
I16586
sg6
I46145
sg7
I00
sg8
g5
sg9
S'terence.thorn@enron.com'
p266
sg11
I200000
sg12
g5
sg13
I73
sg14
g5
sg15
I41
sg16
I426629
sg17
F0.0
sg18
I0
sg19
g5
sg20
g5
sg21
I4817796
sg22
I0
sg23
F0.0
sg24
F0.12962694256591517
sg25
I0
sg26
I365320
sg27
I222093
sg28
F0.2744360902255639
sg29
F0.1998572788677337
sg30
I911453
sg31
F0.09891101611702494
sg32
F0.0
sg33
F0.0
sg34
I4452476
ssS'FASTOW ANDREW S'
p267
(dp268
g3
g5
sg4
g5
sg6
I55921
sg7
I01
sg8
I-1386055
sg9
S'andrew.fastow@enron.com'
p269
sg11
I1736055
sg12
g5
sg13
g5
sg14
g5
sg15
g5
sg16
I277464
sg17
F0.0
sg18
F0.0
sg19
g5
sg20
I1300000
sg21
I1794412
sg22
g5
sg23
F0.1625
sg24
F0.0
sg25
g5
sg26
I1794412
sg27
I440698
sg28
F0.0
sg29
F0.3965757726828513
sg30
I2424083
sg31
F0.03740282793091964
sg32
F0.0
sg33
F0.0
sg34
g5
ssS'FOY JOE'
p270
(dp271
g3
I57
sg4
I181755
sg6
g5
sg7
I00
sg8
g5
sg9
S'tracy.foy@enron.com'
p272
sg11
g5
sg12
g5
sg13
I2
sg14
g5
sg15
I13
sg16
g5
sg17
F0.0
sg18
I0
sg19
g5
sg20
g5
sg21
I343434
sg22
I0
sg23
F0.0
sg24
F0.009998548985594198
sg25
I0
sg26
g5
sg27
g5
sg28
F0.03508771929824561
sg29
F0.0
sg30
I181755
sg31
F0.007883908773479264
sg32
F0.0
sg33
F0.0
sg34
I343434
ssS'CALGER CHRISTOPHER F'
p273
(dp274
g3
I2598
sg4
g5
sg6
I35818
sg7
I01
sg8
I-262500
sg9
S'christopher.calger@enron.com'
p275
sg11
I375304
sg12
g5
sg13
I2188
sg14
g5
sg15
I144
sg16
I486
sg17
F0.07659738260200154
sg18
I224
sg19
g5
sg20
I1250000
sg21
I126027
sg22
I199
sg23
F0.15625
sg24
F0.0
sg25
I25
sg26
I126027
sg27
I240189
sg28
F0.8421862971516552
sg29
F0.21614152609025086
sg30
I1639297
sg31
F0.00346094739345721
sg32
F0.1736111111111111
sg33
F0.1736111111111111
sg34
g5
ssS'RICE KENNETH D'
p276
(dp277
g3
I905
sg4
g5
sg6
I46950
sg7
I01
sg8
I-3504386
sg9
S'ken.rice@enron.com'
p278
sg11
I1617011
sg12
g5
sg13
I864
sg14
g5
sg15
I18
sg16
I174839
sg17
F0.04640883977900553
sg18
I46
sg19
g5
sg20
I1750000
sg21
I22542539
sg22
I42
sg23
F0.21875
sg24
F0.5762767471098494
sg25
I4
sg26
I2748364
sg27
I420636
sg28
F0.9546961325966851
sg29
F0.3785223593440947
sg30
I505050
sg31
F0.45950590846095235
sg32
F0.2222222222222222
sg33
F0.2222222222222222
sg34
I19794175
ssS'KAMINSKI WINCENTY J'
p279
(dp280
g3
I4607
sg4
g5
sg6
I83585
sg7
I00
sg8
g5
sg9
S'vince.kaminski@enron.com'
p281
sg11
I323466
sg12
g5
sg13
I583
sg14
g5
sg15
I14368
sg16
I4669
sg17
F0.008899500759713479
sg18
I212
sg19
g5
sg20
I400000
sg21
I976037
sg22
I41
sg23
F0.05
sg24
F0.024746724620290726
sg25
I171
sg26
I126027
sg27
I275101
sg28
F0.1265465595832429
sg29
F0.24755817280955458
sg30
I1086821
sg31
F0.020753681310178133
sg32
F0.011901447661469933
sg33
F0.011901447661469933
sg34
I850010
ssS'LOCKHART EUGENE E'
p282
(dp283
g3
g5
sg4
g5
sg6
g5
sg7
I00
sg8
g5
sg9
g5
sg11
g5
sg12
g5
sg13
g5
sg14
g5
sg15
g5
sg16
g5
sg17
F0.0
sg18
F0.0
sg19
g5
sg20
g5
sg21
g5
sg22
g5
sg23
F0.0
sg24
F0.0
sg25
g5
sg26
g5
sg27
g5
sg28
F0.0
sg29
F0.0
sg30
g5
sg31
F0.0008970347602851444
sg32
F0.0
sg33
F0.0
sg34
g5
ssS'COX DAVID'
p284
(dp285
g3
I102
sg4
g5
sg6
I27861
sg7
I00
sg8
I-41250
sg9
S'chip.cox@enron.com'
p286
sg11
g5
sg12
g5
sg13
I71
sg14
g5
sg15
I33
sg16
I494
sg17
F0.0
sg18
I4
sg19
g5
sg20
I800000
sg21
I495633
sg22
I0
sg23
F0.1
sg24
F0.0034223152972786145
sg25
I4
sg26
I378082
sg27
I314288
sg28
F0.696078431372549
sg29
F0.28282181095659154
sg30
I1101393
sg31
F0.010980268592059054
sg32
F0.12121212121212122
sg33
F0.12121212121212122
sg34
I117551
ssS'OVERDYKE JR JERE C'
p287
(dp288
g3
g5
sg4
g5
sg6
I18834
sg7
I00
sg8
g5
sg9
S'jere.overdyke@enron.com'
p289
sg11
I135836
sg12
g5
sg13
g5
sg14
g5
sg15
g5
sg16
I176
sg17
F0.0
sg18
F0.0
sg19
g5
sg20
g5
sg21
I7307594
sg22
g5
sg23
F0.0
sg24
F0.15332826138196196
sg25
g5
sg26
I2041016
sg27
I94941
sg28
F0.0
sg29
F0.08543560541296441
sg30
I249787
sg31
F0.14956384881356252
sg32
F0.0
sg33
F0.0
sg34
I5266578
ssS'PEREIRA PAULO V. FERRAZ'
p290
(dp291
g3
g5
sg4
g5
sg6
I27942
sg7
I00
sg8
I-101250
sg9
g5
sg11
g5
sg12
g5
sg13
g5
sg14
g5
sg15
g5
sg16
g5
sg17
F0.0
sg18
F0.0
sg19
I101250
sg20
g5
sg21
g5
sg22
g5
sg23
F0.0
sg24
F0.0
sg25
g5
sg26
g5
sg27
g5
sg28
F0.0
sg29
F0.0
sg30
I27942
sg31
F0.0008970347602851444
sg32
F0.0
sg33
F0.0
sg34
g5
ssS'STABLER FRANK'
p292
(dp293
g3
g5
sg4
g5
sg6
I16514
sg7
I00
sg8
g5
sg9
S'frank.stabler@enron.com'
p294
sg11
g5
sg12
g5
sg13
g5
sg14
g5
sg15
g5
sg16
I356071
sg17
F0.0
sg18
F0.0
sg19
g5
sg20
I500000
sg21
I511734
sg22
g5
sg23
F0.0625
sg24
F0.0
sg25
g5
sg26
I511734
sg27
I239502
sg28
F0.0
sg29
F0.21552330781870638
sg30
I1112087
sg31
F0.011307829807566077
sg32
F0.0
sg33
F0.0
sg34
g5
ssS'SKILLING JEFFREY K'
p295
(dp296
g3
I3627
sg4
g5
sg6
I29336
sg7
I01
sg8
g5
sg9
S'jeff.skilling@enron.com'
p297
sg11
I1920000
sg12
g5
sg13
I2042
sg14
g5
sg15
I108
sg16
I22122
sg17
F0.0242624758753791
sg18
I118
sg19
g5
sg20
I5600000
sg21
I26093672
sg22
I88
sg23
F0.7
sg24
F0.5604339348249979
sg25
I30
sg26
I6843672
sg27
I1111258
sg28
F0.5629997242900469
sg29
F1.0
sg30
I8682716
sg31
F0.5317507033126446
sg32
F0.2777777777777778
sg33
F0.2777777777777778
sg34
I19250000
ssS'BLAKE JR. NORMAN P'
p298
(dp299
g3
g5
sg4
g5
sg6
I1279
sg7
I00
sg8
I-113784
sg9
g5
sg11
g5
sg12
g5
sg13
g5
sg14
g5
sg15
g5
sg16
g5
sg17
F0.0
sg18
F0.0
sg19
I113784
sg20
g5
sg21
g5
sg22
g5
sg23
F0.0
sg24
F0.0
sg25
g5
sg26
g5
sg27
g5
sg28
F0.0
sg29
F0.0
sg30
I1279
sg31
F0.0008970347602851444
sg32
F0.0
sg33
F0.0
sg34
g5
ssS'SHERRICK JEFFREY B'
p300
(dp301
g3
I613
sg4
g5
sg6
g5
sg7
I00
sg8
g5
sg9
S'jeffrey.sherrick@enron.com'
p302
sg11
g5
sg12
g5
sg13
I583
sg14
g5
sg15
I25
sg16
g5
sg17
F0.0636215334420881
sg18
I57
sg19
g5
sg20
g5
sg21
I1832468
sg22
I39
sg23
F0.0
sg24
F0.04152943556238337
sg25
I18
sg26
I405999
sg27
g5
sg28
F0.9510603588907015
sg29
F0.0
sg30
g5
sg31
F0.03817704503652396
sg32
F0.72
sg33
F0.72
sg34
I1426469
ssS'PRENTICE JAMES'
p303
(dp304
g3
g5
sg4
I564348
sg6
g5
sg7
I00
sg8
g5
sg9
S'james.prentice@enron.com'
p305
sg11
g5
sg12
g5
sg13
g5
sg14
g5
sg15
g5
sg16
g5
sg17
F0.0
sg18
F0.0
sg19
g5
sg20
g5
sg21
I1095040
sg22
g5
sg23
F0.0
sg24
F0.025801242934747674
sg25
g5
sg26
I208809
sg27
g5
sg28
F0.0
sg29
F0.0
sg30
I564348
sg31
F0.02317469660916466
sg32
F0.0
sg33
F0.0
sg34
I886231
ssS'GRAY RODNEY'
p306
(dp307
g3
g5
sg4
I93585
sg6
g5
sg7
I00
sg8
g5
sg9
g5
sg11
I365625
sg12
g5
sg13
g5
sg14
g5
sg15
g5
sg16
I680833
sg17
F0.0
sg18
F0.0
sg19
g5
sg20
g5
sg21
g5
sg22
g5
sg23
F0.0
sg24
F0.0
sg25
g5
sg26
g5
sg27
I6615
sg28
F0.0
sg29
F0.005952713051334614
sg30
I1146658
sg31
F0.0008970347602851444
sg32
F0.0
sg33
F0.0
sg34
g5
ssS'PICKERING MARK R'
p308
(dp309
g3
I898
sg4
g5
sg6
I31653
sg7
I00
sg8
g5
sg9
S'mark.pickering@enron.com'
p310
sg11
g5
sg12
g5
sg13
I728
sg14
I400000
sg15
I67
sg16
g5
sg17
F0.0077951002227171495
sg18
I7
sg19
g5
sg20
I300000
sg21
I28798
sg22
I7
sg23
F0.0375
sg24
F0.0008384091664981969
sg25
I0
sg26
g5
sg27
I655037
sg28
F0.8106904231625836
sg29
F0.5894553739995573
sg30
I1386690
sg31
F0.0014829056927844434
sg32
F0.0
sg33
F0.0
sg34
I28798
ssS'THE TRAVEL AGENCY IN THE PARK'
p311
(dp312
g3
g5
sg4
g5
sg6
g5
sg7
I00
sg8
g5
sg9
g5
sg11
g5
sg12
g5
sg13
g5
sg14
g5
sg15
g5
sg16
I362096
sg17
F0.0
sg18
F0.0
sg19
g5
sg20
g5
sg21
g5
sg22
g5
sg23
F0.0
sg24
F0.0
sg25
g5
sg26
g5
sg27
g5
sg28
F0.0
sg29
F0.0
sg30
I362096
sg31
F0.0008970347602851444
sg32
F0.0
sg33
F0.0
sg34
g5
ssS'NOLES JAMES L'
p313
(dp314
g3
g5
sg4
I774401
sg6
g5
sg7
I00
sg8
g5
sg9
g5
sg11
g5
sg12
I-94556
sg13
g5
sg14
g5
sg15
g5
sg16
g5
sg17
F0.0
sg18
F0.0
sg19
g5
sg20
g5
sg21
I368705
sg22
g5
sg23
F0.0
sg24
F0.0
sg25
g5
sg26
I463261
sg27
g5
sg28
F0.0
sg29
F0.0
sg30
I774401
sg31
F0.008398025876583292
sg32
F0.0
sg33
F0.0
sg34
g5
ssS'KEAN STEVEN J'
p315
(dp316
g3
I12754
sg4
g5
sg6
I41953
sg7
I00
sg8
g5
sg9
S'steven.kean@enron.com'
p317
sg11
I300000
sg12
g5
sg13
I3639
sg14
g5
sg15
I6759
sg16
I1231
sg17
F0.010976948408342482
sg18
I527
sg19
g5
sg20
I1000000
sg21
I6153642
sg22
I140
sg23
F0.125
sg24
F0.05886879569065025
sg25
I387
sg26
I4131594
sg27
I404338
sg28
F0.2853222518425592
sg29
F0.3638560982238148
sg30
I1747522
sg31
F0.12608767219367814
sg32
F0.05725699067909454
sg33
F0.05725699067909454
sg34
I2022048
ssS'FOWLER PEGGY'
p318
(dp319
g3
I517
sg4
g5
sg6
g5
sg7
I00
sg8
g5
sg9
S'kulvinder.fowler@enron.com'
p320
sg11
g5
sg12
g5
sg13
I10
sg14
g5
sg15
I36
sg16
g5
sg17
F0.0
sg18
I0
sg19
g5
sg20
g5
sg21
I1884748
sg22
I0
sg23
F0.0
sg24
F0.03856303691026629
sg25
I0
sg26
I560170
sg27
g5
sg28
F0.019342359767891684
sg29
F0.0
sg30
g5
sg31
F0.0392406373815154
sg32
F0.0
sg33
F0.0
sg34
I1324578
ssS'WASAFF GEORGE'
p321
(dp322
g3
I400
sg4
I831299
sg6
g5
sg7
I00
sg8
I-583325
sg9
S'george.wasaff@enron.com'
p323
sg11
I200000
sg12
g5
sg13
I337
sg14
g5
sg15
I30
sg16
I1425
sg17
F0.055
sg18
I29
sg19
g5
sg20
I325000
sg21
I2056427
sg22
I22
sg23
F0.040625
sg24
F0.0485688060317481
sg25
I7
sg26
I388167
sg27
I259996
sg28
F0.8425
sg29
F0.23396546976489707
sg30
I1034395
sg31
F0.04273330131027945
sg32
F0.23333333333333334
sg33
F0.23333333333333334
sg34
I1668260
ssS'WHITE JR THOMAS E'
p324
(dp325
g3
g5
sg4
g5
sg6
I81353
sg7
I00
sg8
g5
sg9
S'thomas.white@enron.com'
p326
sg11
g5
sg12
g5
sg13
g5
sg14
g5
sg15
g5
sg16
I1085463
sg17
F0.0
sg18
F0.0
sg19
g5
sg20
I450000
sg21
I15144123
sg22
g5
sg23
F0.05625
sg24
F0.0377615727132898
sg25
g5
sg26
I13847074
sg27
I317543
sg28
F0.0
sg29
F0.2857509237278832
sg30
I1934359
sg31
F0.3089913976984781
sg32
F0.0
sg33
F0.0
sg34
I1297049
ssS'CHRISTODOULOU DIOMEDES'
p327
(dp328
g3
g5
sg4
g5
sg6
g5
sg7
I00
sg8
g5
sg9
S'diomedes.christodoulou@enron.com'
p329
sg11
g5
sg12
g5
sg13
g5
sg14
g5
sg15
g5
sg16
g5
sg17
F0.0
sg18
F0.0
sg19
g5
sg20
g5
sg21
I6077885
sg22
g5
sg23
F0.0
sg24
F0.14926917668091752
sg25
g5
sg26
I950730
sg27
g5
sg28
F0.0
sg29
F0.0
sg30
g5
sg31
F0.12454646015696207
sg32
F0.0
sg33
F0.0
sg34
I5127155
ssS'ALLEN PHILLIP K'
p330
(dp331
g3
I2902
sg4
I2869717
sg6
I13868
sg7
I00
sg8
I-3081055
sg9
S'phillip.allen@enron.com'
p332
sg11
I304805
sg12
I-126027
sg13
I1407
sg14
g5
sg15
I2195
sg16
I152
sg17
F0.016195727084769126
sg18
I112
sg19
g5
sg20
I4175000
sg21
I1729541
sg22
I47
sg23
F0.521875
sg24
F0.05035290743226814
sg25
I65
sg26
I126027
sg27
I201955
sg28
F0.4848380427291523
sg29
F0.18173547457026182
sg30
I4484442
sg31
F0.03608308234920695
sg32
F0.029612756264236904
sg33
F0.029612756264236904
sg34
I1729541
ssS'SHARP VICTORIA T'
p333
(dp334
g3
I3136
sg4
I187469
sg6
I116337
sg7
I00
sg8
g5
sg9
S'vicki.sharp@enron.com'
p335
sg11
I422158
sg12
g5
sg13
I2477
sg14
g5
sg15
I136
sg16
I2401
sg17
F0.007653061224489796
sg18
I30
sg19
g5
sg20
I600000
sg21
I494136
sg22
I24
sg23
F0.075
sg24
F0.008183005057821643
sg25
I6
sg26
I213063
sg27
I248146
sg28
F0.7898596938775511
sg29
F0.2233018794915312
sg30
I1576511
sg31
F0.010949813394269228
sg32
F0.04411764705882353
sg33
F0.04411764705882353
sg34
I281073
ssS'JAEDICKE ROBERT'
p336
(dp337
g3
g5
sg4
g5
sg6
g5
sg7
I00
sg8
I-25000
sg9
g5
sg11
g5
sg12
I-44093
sg13
g5
sg14
g5
sg15
g5
sg16
g5
sg17
F0.0
sg18
F0.0
sg19
I108750
sg20
g5
sg21
I431750
sg22
g5
sg23
F0.0
sg24
F0.012569732538217809
sg25
g5
sg26
I44093
sg27
g5
sg28
F0.0
sg29
F0.0
sg30
I83750
sg31
F0.009680623034004581
sg32
F0.0
sg33
F0.0
sg34
I431750
ssS'WINOKUR JR. HERBERT S'
p338
(dp339
g3
g5
sg4
g5
sg6
I1413
sg7
I00
sg8
I-25000
sg9
g5
sg11
g5
sg12
g5
sg13
g5
sg14
g5
sg15
g5
sg16
g5
sg17
F0.0
sg18
F0.0
sg19
I108579
sg20
g5
sg21
g5
sg22
g5
sg23
F0.0
sg24
F0.0
sg25
g5
sg26
g5
sg27
g5
sg28
F0.0
sg29
F0.0
sg30
I84992
sg31
F0.0008970347602851444
sg32
F0.0
sg33
F0.0
sg34
g5
ssS'BROWN MICHAEL'
p340
(dp341
g3
I1486
sg4
g5
sg6
I49288
sg7
I00
sg8
g5
sg9
S'michael.brown@enron.com'
p342
sg11
g5
sg12
g5
sg13
I761
sg14
g5
sg15
I41
sg16
g5
sg17
F0.008748317631224764
sg18
I14
sg19
g5
sg20
g5
sg21
g5
sg22
I13
sg23
F0.0
sg24
F0.0
sg25
I1
sg26
g5
sg27
g5
sg28
F0.5121130551816958
sg29
F0.0
sg30
I49288
sg31
F0.0008970347602851444
sg32
F0.024390243902439025
sg33
F0.024390243902439025
sg34
g5
ssS'BADUM JAMES P'
p343
(dp344
g3
g5
sg4
I178980
sg6
I3486
sg7
I00
sg8
g5
sg9
g5
sg11
g5
sg12
g5
sg13
g5
sg14
g5
sg15
g5
sg16
g5
sg17
F0.0
sg18
F0.0
sg19
g5
sg20
g5
sg21
I257817
sg22
g5
sg23
F0.0
sg24
F0.007505942637650726
sg25
g5
sg26
g5
sg27
g5
sg28
F0.0
sg29
F0.0
sg30
I182466
sg31
F0.006142103383251037
sg32
F0.0
sg33
F0.0
sg34
I257817
ssS'HUGHES JAMES A'
p345
(dp346
g3
I719
sg4
g5
sg6
g5
sg7
I00
sg8
g5
sg9
S'james.hughes@enron.com'
p347
sg11
g5
sg12
g5
sg13
I589
sg14
g5
sg15
I34
sg16
g5
sg17
F0.048678720445062586
sg18
I40
sg19
g5
sg20
g5
sg21
I1118394
sg22
I35
sg23
F0.0
sg24
F0.02197966576826438
sg25
I5
sg26
I363428
sg27
g5
sg28
F0.8191933240611962
sg29
F0.0
sg30
g5
sg31
F0.02364981397000877
sg32
F0.14705882352941177
sg33
F0.14705882352941177
sg34
I754966
ssS'REYNOLDS LAWRENCE'
p348
(dp349
g3
g5
sg4
I51365
sg6
I8409
sg7
I00
sg8
I-200000
sg9
g5
sg11
I156250
sg12
I-140264
sg13
g5
sg14
g5
sg15
g5
sg16
I202052
sg17
F0.0
sg18
F0.0
sg19
g5
sg20
I100000
sg21
I4221891
sg22
g5
sg23
F0.0125
sg24
F0.12113152106369837
sg25
g5
sg26
I201483
sg27
I76399
sg28
F0.0
sg29
F0.06875001124851295
sg30
I394475
sg31
F0.0867878333254771
sg32
F0.0
sg33
F0.0
sg34
I4160672
ssS'DIMICHELE RICHARD G'
p350
(dp351
g3
g5
sg4
g5
sg6
I35812
sg7
I00
sg8
g5
sg9
S'richard.dimichele@enron.com'
p352
sg11
I694862
sg12
g5
sg13
g5
sg14
g5
sg15
g5
sg16
I374689
sg17
F0.0
sg18
F0.0
sg19
g5
sg20
I1000000
sg21
I8317782
sg22
g5
sg23
F0.125
sg24
F0.23849025910505717
sg25
g5
sg26
I126027
sg27
I262788
sg28
F0.0
sg29
F0.23647793761664707
sg30
I2368151
sg31
F0.17011526854964149
sg32
F0.0
sg33
F0.0
sg34
I8191755
ssS'BHATNAGAR SANJAY'
p353
(dp354
g3
I523
sg4
g5
sg6
g5
sg7
I00
sg8
g5
sg9
S'sanjay.bhatnagar@enron.com'
p355
sg11
g5
sg12
I15456290
sg13
I463
sg14
g5
sg15
I29
sg16
I137864
sg17
F0.0
sg18
I1
sg19
I137864
sg20
g5
sS'total_stock_value'
p356
S'NaN'
p357
sg22
I0
sg23
F0.0
sg24
F0.07582569241103163
sg25
I1
sg26
I-2604490
sg27
g5
sg28
F0.8852772466539197
sg29
F0.0
sg30
I15456290
sg31
F0.0008970347602851444
sg32
F0.034482758620689655
sg33
F0.034482758620689655
sg34
I2604490
ssS'CARTER REBECCA C'
p358
(dp359
g3
I312
sg4
g5
sg6
g5
sg7
I00
sg8
I-159792
sg9
S'rebecca.carter@enron.com'
p360
sg11
I75000
sg12
I-307301
sg13
I196
sg14
g5
sg15
I15
sg16
I540
sg17
F0.09294871794871795
sg18
I36
sg19
g5
sg20
I300000
sg21
g5
sg22
I29
sg23
F0.0375
sg24
F0.0
sg25
I7
sg26
I307301
sg27
I261809
sg28
F0.6282051282051282
sg29
F0.23559695408267028
sg30
I477557
sg31
F0.0008970347602851444
sg32
F0.4666666666666667
sg33
F0.4666666666666667
sg34
g5
ssS'BUCHANAN HAROLD G'
p361
(dp362
g3
I1088
sg4
g5
sg6
I600
sg7
I00
sg8
g5
sg9
S'john.buchanan@enron.com'
p363
sg11
I304805
sg12
g5
sg13
I23
sg14
g5
sg15
I125
sg16
I1215
sg17
F0.0
sg18
I0
sg19
g5
sg20
I500000
sg21
I1014505
sg22
I0
sg23
F0.0625
sg24
F0.024032105848123743
sg25
I0
sg26
I189041
sg27
I248017
sg28
F0.021139705882352942
sg29
F0.22318579483792242
sg30
I1054637
sg31
F0.021536280207024548
sg32
F0.0
sg33
F0.0
sg34
I825464
ssS'YEAP SOON'
p364
(dp365
g3
g5
sg4
g5
sg6
I55097
sg7
I00
sg8
g5
sg9
g5
sg11
g5
sg12
g5
sg13
g5
sg14
g5
sg15
g5
sg16
g5
sg17
F0.0
sg18
F0.0
sg19
g5
sg20
g5
sg21
I192758
sg22
g5
sg23
F0.0
sg24
F0.005611850618649192
sg25
g5
sg26
g5
sg27
g5
sg28
F0.0
sg29
F0.0
sg30
I55097
sg31
F0.004818533100680307
sg32
F0.0
sg33
F0.0
sg34
I192758
ssS'MURRAY JULIA H'
p366
(dp367
g3
I2192
sg4
g5
sg6
I57580
sg7
I00
sg8
g5
sg9
S'julia.murray@enron.com'
p368
sg11
I125000
sg12
g5
sg13
I395
sg14
g5
sg15
I45
sg16
I330
sg17
F0.005018248175182482
sg18
I13
sg19
g5
sg20
I400000
sg21
I597461
sg22
I11
sg23
F0.05
sg24
F0.011659296693550416
sg25
I2
sg26
I196983
sg27
I229284
sg28
F0.1802007299270073
sg29
F0.2063283233956471
sg30
I812194
sg31
F0.013051873054679327
sg32
F0.044444444444444446
sg33
F0.044444444444444446
sg34
I400478
ssS'GARLAND C KEVIN'
p369
(dp370
g3
I209
sg4
g5
sg6
I48405
sg7
I00
sg8
g5
sg9
S'kevin.garland@enron.com'
p371
sg11
I375304
sg12
g5
sg13
I178
sg14
g5
sg15
I44
sg16
I60814
sg17
F0.04784688995215311
sg18
I37
sg19
g5
sg20
I850000
sg21
I896153
sg22
I10
sg23
F0.10625
sg24
F0.01852331684658003
sg25
I27
sg26
I259907
sg27
I231946
sg28
F0.8516746411483254
sg29
F0.20872380671275256
sg30
I1566469
sg31
F0.01912850895196666
sg32
F0.6136363636363636
sg33
F0.6136363636363636
sg34
I636246
ssS'DODSON KEITH'
p372
(dp373
g3
I176
sg4
g5
sg6
I28164
sg7
I00
sg8
g5
sg9
S'keith.dodson@enron.com'
p374
sg11
g5
sg12
g5
sg13
I114
sg14
g5
sg15
I14
sg16
I774
sg17
F0.056818181818181816
sg18
I13
sg19
g5
sg20
I70000
sg21
g5
sg22
I10
sg23
F0.00875
sg24
F0.0
sg25
I3
sg26
g5
sg27
I221003
sg28
F0.6477272727272727
sg29
F0.19887640853879118
sg30
I319941
sg31
F0.0008970347602851444
sg32
F0.21428571428571427
sg33
F0.21428571428571427
sg34
g5
ssS'YEAGER F SCOTT'
p375
(dp376
g3
g5
sg4
g5
sg6
I53947
sg7
I01
sg8
g5
sg9
S'scott.yeager@enron.com'
p377
sg11
g5
sg12
g5
sg13
g5
sg14
g5
sg15
g5
sg16
I147950
sg17
F0.0
sg18
F0.0
sg19
g5
sg20
g5
sg21
I11884758
sg22
g5
sg23
F0.0
sg24
F0.24189062286016133
sg25
g5
sg26
I3576206
sg27
I158403
sg28
F0.0
sg29
F0.14254385570227615
sg30
I360300
sg31
F0.2426823758252377
sg32
F0.0
sg33
F0.0
sg34
I8308552
ssS'HIRKO JOSEPH'
p378
(dp379
g3
g5
sg4
I10259
sg6
I77978
sg7
I01
sg8
g5
sg9
S'joe.hirko@enron.com'
p380
sg11
g5
sg12
g5
sg13
g5
sg14
g5
sg15
g5
sg16
I2856
sg17
F0.0
sg18
F0.0
sg19
g5
sg20
g5
sg21
I30766064
sg22
g5
sg23
F0.0
sg24
F0.8957063016414397
sg25
g5
sg26
g5
sg27
g5
sg28
F0.0
sg29
F0.0
sg30
I91093
sg31
F0.6268065633738387
sg32
F0.0
sg33
F0.0
sg34
I30766064
ssS'DIETRICH JANET R'
p381
(dp382
g3
I2572
sg4
g5
sg6
I3475
sg7
I00
sg8
g5
sg9
S'janet.dietrich@enron.com'
p383
sg11
I556416
sg12
g5
sg13
I1902
sg14
g5
sg15
I63
sg16
I473
sg17
F0.11858475894245724
sg18
I319
sg19
g5
sg20
I600000
sg21
I1865087
sg22
I305
sg23
F0.075
sg24
F0.04512640245316927
sg25
I14
sg26
I315068
sg27
I250100
sg28
F0.73950233281493
sg29
F0.22506024703534191
sg30
I1410464
sg31
F0.03884065097954759
sg32
F0.2222222222222222
sg33
F0.2222222222222222
sg34
I1550019
ssS'DERRICK JR. JAMES V'
p384
(dp385
g3
I2181
sg4
g5
sg6
I51124
sg7
I00
sg8
I-1284000
sg9
S'james.derrick@enron.com'
p386
sg11
I484000
sg12
I-1787380
sg13
I1401
sg14
g5
sg15
I909
sg16
I7482
sg17
F0.029344337459880788
sg18
I84
sg19
g5
sg20
I800000
sg21
I8831913
sg22
I64
sg23
F0.1
sg24
F0.2571274677725741
sg25
I20
sg26
I1787380
sg27
I492375
sg28
F0.6423658872077029
sg29
F0.4430789249661195
sg30
I550981
sg31
F0.18057482853286244
sg32
F0.022002200220022004
sg33
F0.022002200220022004
sg34
I8831913
ssS'FREVERT MARK A'
p387
(dp388
g3
I3275
sg4
I6426990
sg6
I86987
sg7
I00
sg8
I-3367011
sg9
S'mark.frevert@enron.com'
p389
sg11
I1617011
sg12
g5
sg13
I2979
sg14
I2000000
sg15
I21
sg16
I7427621
sg17
F0.07389312977099237
sg18
I248
sg19
g5
sg20
I2000000
sg21
I14622185
sg22
I242
sg23
F0.25
sg24
F0.30375571671726975
sg25
I6
sg26
I4188667
sg27
I1060932
sg28
F0.909618320610687
sg29
F0.9547125869959991
sg30
I17252530
sg31
F0.29837301090888096
sg32
F0.2857142857142857
sg33
F0.2857142857142857
sg34
I10433518
ssS'PAI LOU L'
p390
(dp391
g3
g5
sg4
g5
sg6
I32047
sg7
I00
sg8
g5
sg9
S'lou.pai@enron.com'
p392
sg11
g5
sg12
g5
sg13
g5
sg14
g5
sg15
g5
sg16
I1829457
sg17
F0.0
sg18
F0.0
sg19
g5
sg20
I1000000
sg21
I23817930
sg22
g5
sg23
F0.125
sg24
F0.4473039255645913
sg25
g5
sg26
I8453763
sg27
I261879
sg28
F0.0
sg29
F0.23565994575517116
sg30
I3123383
sg31
F0.48545265873774984
sg32
F0.0
sg33
F0.0
sg34
I15364167
ssS'BAY FRANKLIN R'
p393
(dp394
g3
g5
sg4
I260455
sg6
I129142
sg7
I00
sg8
I-201641
sg9
S'frank.bay@enron.com'
p395
sg11
g5
sg12
I-82782
sg13
g5
sg14
g5
sg15
g5
sg16
I69
sg17
F0.0
sg18
F0.0
sg19
g5
sg20
I400000
sg21
I63014
sg22
g5
sg23
F0.05
sg24
F0.0
sg25
g5
sg26
I145796
sg27
I239671
sg28
F0.0
sg29
F0.21567538771374425
sg30
I827696
sg31
F0.0021790012489479277
sg32
F0.0
sg33
F0.0
sg34
g5
ssS'HAYSLETT RODERICK J'
p396
(dp397
g3
I2649
sg4
g5
sg6
g5
sg7
I00
sg8
g5
sg9
S'rod.hayslett@enron.com'
p398
sg11
g5
sg12
g5
sg13
I571
sg14
g5
sg15
I1061
sg16
g5
sg17
F0.01321253303133258
sg18
I73
sg19
g5
sg20
g5
sg21
I346663
sg22
I35
sg23
F0.0
sg24
F0.0
sg25
I38
sg26
I346663
sg27
g5
sg28
F0.21555303888259722
sg29
F0.0
sg30
g5
sg31
F0.00794960004513147
sg32
F0.03581526861451461
sg33
F0.03581526861451461
sg34
g5
ssS'FUGH JOHN L'
p399
(dp400
g3
g5
sg4
I50591
sg6
g5
sg7
I00
sg8
g5
sg9
g5
sg11
g5
sg12
g5
sg13
g5
sg14
g5
sg15
g5
sg16
g5
sg17
F0.0
sg18
F0.0
sg19
g5
sg20
g5
sg21
I176378
sg22
g5
sg23
F0.0
sg24
F0.0051349722886526485
sg25
g5
sg26
g5
sg27
g5
sg28
F0.0
sg29
F0.0
sg30
I50591
sg31
F0.004485295866346724
sg32
F0.0
sg33
F0.0
sg34
I176378
ssS'FALLON JAMES B'
p401
(dp402
g3
I1755
sg4
g5
sg6
I95924
sg7
I00
sg8
g5
sg9
S'jim.fallon@enron.com'
p403
sg11
I374347
sg12
g5
sg13
I1604
sg14
g5
sg15
I75
sg16
I401481
sg17
F0.023931623931623933
sg18
I79
sg19
g5
sg20
I2500000
sg21
I2332399
sg22
I42
sg23
F0.3125
sg24
F0.027374126247103794
sg25
I37
sg26
I1392142
sg27
I304588
sg28
F0.913960113960114
sg29
F0.27409296491003887
sg30
I3676340
sg31
F0.04834771804004181
sg32
F0.49333333333333335
sg33
F0.49333333333333335
sg34
I940257
ssS'KOENIG MARK E'
p404
(dp405
g3
I2374
sg4
g5
sg6
I127017
sg7
I01
sg8
g5
sg9
S'mark.koenig@enron.com'
p406
sg11
I300000
sg12
g5
sg13
I2271
sg14
g5
sg15
I61
sg16
I150458
sg17
F0.02232518955349621
sg18
I68
sg19
g5
sg20
I700000
sg21
I1920055
sg22
I53
sg23
F0.0875
sg24
F0.01955658234169037
sg25
I15
sg26
I1248318
sg27
I309946
sg28
F0.9566133108677338
sg29
F0.27891452749946455
sg30
I1587421
sg31
F0.039958928409147616
sg32
F0.2459016393442623
sg33
F0.2459016393442623
sg34
I671737
ssS'SAVAGE FRANK'
p407
(dp408
g3
g5
sg4
g5
sg6
g5
sg7
I00
sg8
I-121284
sg9
g5
sg11
g5
sg12
g5
sg13
g5
sg14
g5
sg15
g5
sg16
g5
sg17
F0.0
sg18
F0.0
sg19
I125034
sg20
g5
sg21
g5
sg22
g5
sg23
F0.0
sg24
F0.0
sg25
g5
sg26
g5
sg27
g5
sg28
F0.0
sg29
F0.0
sg30
I3750
sg31
F0.0008970347602851444
sg32
F0.0
sg33
F0.0
sg34
g5
ssS'IZZO LAWRENCE L'
p409
(dp410
g3
I496
sg4
g5
sg6
I28093
sg7
I00
sg8
g5
sg9
S'larry.izzo@enron.com'
p411
sg11
I312500
sg12
g5
sg13
I437
sg14
g5
sg15
I19
sg16
I1553729
sg17
F0.056451612903225805
sg18
I33
sg19
g5
sg20
g5
sg21
I5819980
sg22
I28
sg23
F0.0
sg24
F0.0630356292744369
sg25
I5
sg26
I3654808
sg27
I85274
sg28
F0.8810483870967742
sg29
F0.07673645544059075
sg30
I1979596
sg31
F0.11929960124848815
sg32
F0.2631578947368421
sg33
F0.2631578947368421
sg34
I2165172
ssS'TILNEY ELIZABETH A'
p412
(dp413
g3
I460
sg4
g5
sg6
g5
sg7
I00
sg8
I-575000
sg9
S'elizabeth.tilney@enron.com'
p414
sg11
I275000
sg12
g5
sg13
I379
sg14
g5
sg15
I19
sg16
I152055
sg17
F0.021739130434782608
sg18
I21
sg19
g5
sg20
I300000
sg21
I1168042
sg22
I10
sg23
F0.0375
sg24
F0.017213327998196363
sg25
I11
sg26
I576792
sg27
I247338
sg28
F0.8239130434782609
sg29
F0.22257477561466374
sg30
I399393
sg31
F0.02465986050298763
sg32
F0.5789473684210527
sg33
F0.5789473684210527
sg34
I591250
ssS'MARTIN AMANDA K'
p415
(dp416
g3
I1522
sg4
I85430
sg6
I8211
sg7
I00
sg8
g5
sg9
S'a..martin@enron.com'
p417
sg11
I5145434
sg12
g5
sg13
I477
sg14
g5
sg15
I230
sg16
I2818454
sg17
F0.005256241787122208
sg18
I8
sg19
g5
sg20
g5
sg21
I2070306
sg22
I8
sg23
F0.0
sg24
F0.06027375261671699
sg25
I0
sg26
g5
sg27
I349487
sg28
F0.31340341655716164
sg29
F0.3144967235331489
sg30
I8407016
sg31
F0.043015657816708984
sg32
F0.0
sg33
F0.0
sg34
I2070306
ssS'BUY RICHARD B'
p418
(dp419
g3
I3523
sg4
I649584
sg6
g5
sg7
I00
sg8
I-694862
sg9
S'rick.buy@enron.com'
p420
sg11
I769862
sg12
g5
sg13
I2333
sg14
g5
sg15
I1053
sg16
I400572
sg17
F0.04428044280442804
sg18
I227
sg19
g5
sg20
I900000
sg21
I3444470
sg22
I156
sg23
F0.1125
sg24
F0.07403006208385234
sg25
I71
sg26
I901657
sg27
I330546
sg28
F0.6622196991200682
sg29
F0.29745207683544234
sg30
I2355702
sg31
F0.07097186116718356
sg32
F0.06742640075973409
sg33
F0.06742640075973409
sg34
I2542813
ssS'GRAMM WENDY L'
p421
(dp422
g3
g5
sg4
g5
sg6
g5
sg7
I00
sg8
g5
sg9
g5
sg11
g5
sg12
g5
sg13
g5
sg14
g5
sg15
g5
sg16
g5
sg17
F0.0
sg18
F0.0
sg19
I119292
sg20
g5
sg21
g5
sg22
g5
sg23
F0.0
sg24
F0.0
sg25
g5
sg26
g5
sg27
g5
sg28
F0.0
sg29
F0.0
sg30
I119292
sg31
F0.0008970347602851444
sg32
F0.0
sg33
F0.0
sg34
g5
ssS'CAUSEY RICHARD A'
p423
(dp424
g3
I1892
sg4
g5
sg6
I30674
sg7
I01
sg8
I-235000
sg9
S'richard.causey@enron.com'
p425
sg11
I350000
sg12
g5
sg13
I1585
sg14
g5
sg15
I49
sg16
I307895
sg17
F0.0306553911205074
sg18
I70
sg19
g5
sg20
I1000000
sg21
I2502063
sg22
I58
sg23
F0.125
sg24
F0.0
sg25
I12
sg26
I2502063
sg27
I415189
sg28
F0.837737843551797
sg29
F0.3736207073424893
sg30
I1868758
sg31
F0.05179938849950292
sg32
F0.24489795918367346
sg33
F0.24489795918367346
sg34
g5
ssS'TAYLOR MITCHELL S'
p426
(dp427
g3
I533
sg4
I227449
sg6
g5
sg7
I00
sg8
g5
sg9
S'mitchell.taylor@enron.com'
p428
sg11
g5
sg12
g5
sg13
I300
sg14
g5
sg15
I29
sg16
g5
sg17
F0.0
sg18
I0
sg19
g5
sg20
I600000
sg21
I3745048
sg22
I0
sg23
F0.075
sg24
F0.09261716650192335
sg25
I0
sg26
I563798
sg27
I265214
sg28
F0.5628517823639775
sg29
F0.23866104900932097
sg30
I1092663
sg31
F0.0770868661379723
sg32
F0.0
sg33
F0.0
sg34
I3181250
ssS'DONAHUE JR JEFFREY M'
p429
(dp430
g3
I865
sg4
g5
sg6
I96268
sg7
I00
sg8
I-300000
sg9
S'jeff.donahue@enron.com'
p431
sg11
g5
sg12
g5
sg13
I772
sg14
g5
sg15
I22
sg16
I891
sg17
F0.21734104046242775
sg18
I199
sg19
g5
sg20
I800000
sg21
I1080988
sg22
I188
sg23
F0.1
sg24
F0.022298574512268174
sg25
I11
sg26
I315068
sg27
I278601
sg28
F0.892485549132948
sg29
F0.25070775643459936
sg30
I875760
sg31
F0.02288882056417959
sg32
F0.5
sg33
F0.5
sg34
I765920
ssS'GLISAN JR BEN F'
p432
(dp433
g3
I873
sg4
g5
sg6
I125978
sg7
I01
sg8
g5
sg9
S'ben.glisan@enron.com'
p434
sg11
I71023
sg12
g5
sg13
I874
sg14
g5
sg15
I16
sg16
I200308
sg17
F0.05956471935853379
sg18
I58
sg19
g5
sg20
I600000
sg21
I778546
sg22
I52
sg23
F0.075
sg24
F0.011200759837784508
sg25
I6
sg26
I393818
sg27
I274975
sg28
F1.0011454753722795
sg29
F0.24744478779905296
sg30
I1272284
sg31
F0.016735894091266437
sg32
F0.375
sg33
F0.375
sg34
I384728
ss.